
001_Pulse_Generating_Card_20241129.elf:     file format elf32-littlearm

Sections:
Idx Name          Size      VMA       LMA       File off  Algn
  0 .isr_vector   00000130  08000000  08000000  00010000  2**0
                  CONTENTS, ALLOC, LOAD, READONLY, DATA
  1 .text         000029d0  08000130  08000130  00010130  2**2
                  CONTENTS, ALLOC, LOAD, READONLY, CODE
  2 .rodata       00000000  08002b00  08002b00  000201bc  2**0
                  CONTENTS, ALLOC, LOAD, DATA
  3 .ARM.extab    00000000  08002b00  08002b00  000201bc  2**0
                  CONTENTS
  4 .ARM          00000000  08002b00  08002b00  000201bc  2**0
                  CONTENTS
  5 .preinit_array 00000000  08002b00  08002b00  000201bc  2**0
                  CONTENTS, ALLOC, LOAD, DATA
  6 .init_array   00000004  08002b00  08002b00  00012b00  2**2
                  CONTENTS, ALLOC, LOAD, DATA
  7 .fini_array   00000004  08002b04  08002b04  00012b04  2**2
                  CONTENTS, ALLOC, LOAD, DATA
  8 .data         000001bc  20000000  08002b08  00020000  2**2
                  CONTENTS, ALLOC, LOAD, DATA
  9 .bss          000001e0  200001bc  08002cc4  000201bc  2**2
                  ALLOC
 10 ._user_heap_stack 00000604  2000039c  08002cc4  0002039c  2**0
                  ALLOC
 11 .ARM.attributes 00000029  00000000  00000000  000201bc  2**0
                  CONTENTS, READONLY
 12 .debug_info   00003d3c  00000000  00000000  000201e5  2**0
                  CONTENTS, READONLY, DEBUGGING, OCTETS
 13 .debug_abbrev 00000e13  00000000  00000000  00023f21  2**0
                  CONTENTS, READONLY, DEBUGGING, OCTETS
 14 .debug_aranges 000003a8  00000000  00000000  00024d38  2**3
                  CONTENTS, READONLY, DEBUGGING, OCTETS
 15 .debug_ranges 00000310  00000000  00000000  000250e0  2**3
                  CONTENTS, READONLY, DEBUGGING, OCTETS
 16 .debug_macro  0000347e  00000000  00000000  000253f0  2**0
                  CONTENTS, READONLY, DEBUGGING, OCTETS
 17 .debug_line   00003b13  00000000  00000000  0002886e  2**0
                  CONTENTS, READONLY, DEBUGGING, OCTETS
 18 .debug_str    0000bfd0  00000000  00000000  0002c381  2**0
                  CONTENTS, READONLY, DEBUGGING, OCTETS
 19 .comment      00000050  00000000  00000000  00038351  2**0
                  CONTENTS, READONLY
 20 .debug_frame  00000fc8  00000000  00000000  000383a4  2**2
                  CONTENTS, READONLY, DEBUGGING, OCTETS

Disassembly of section .text:

08000130 <__do_global_dtors_aux>:
 8000130:	b510      	push	{r4, lr}
 8000132:	4c05      	ldr	r4, [pc, #20]	; (8000148 <__do_global_dtors_aux+0x18>)
 8000134:	7823      	ldrb	r3, [r4, #0]
 8000136:	b933      	cbnz	r3, 8000146 <__do_global_dtors_aux+0x16>
 8000138:	4b04      	ldr	r3, [pc, #16]	; (800014c <__do_global_dtors_aux+0x1c>)
 800013a:	b113      	cbz	r3, 8000142 <__do_global_dtors_aux+0x12>
 800013c:	4804      	ldr	r0, [pc, #16]	; (8000150 <__do_global_dtors_aux+0x20>)
 800013e:	f3af 8000 	nop.w
 8000142:	2301      	movs	r3, #1
 8000144:	7023      	strb	r3, [r4, #0]
 8000146:	bd10      	pop	{r4, pc}
 8000148:	200001bc 	.word	0x200001bc
 800014c:	00000000 	.word	0x00000000
 8000150:	08002ae8 	.word	0x08002ae8

08000154 <frame_dummy>:
 8000154:	b508      	push	{r3, lr}
 8000156:	4b03      	ldr	r3, [pc, #12]	; (8000164 <frame_dummy+0x10>)
 8000158:	b11b      	cbz	r3, 8000162 <frame_dummy+0xe>
 800015a:	4903      	ldr	r1, [pc, #12]	; (8000168 <frame_dummy+0x14>)
 800015c:	4803      	ldr	r0, [pc, #12]	; (800016c <frame_dummy+0x18>)
 800015e:	f3af 8000 	nop.w
 8000162:	bd08      	pop	{r3, pc}
 8000164:	00000000 	.word	0x00000000
 8000168:	200001c0 	.word	0x200001c0
 800016c:	08002ae8 	.word	0x08002ae8

08000170 <__aeabi_fmul>:
 8000170:	f04f 0cff 	mov.w	ip, #255	; 0xff
 8000174:	ea1c 52d0 	ands.w	r2, ip, r0, lsr #23
 8000178:	bf1e      	ittt	ne
 800017a:	ea1c 53d1 	andsne.w	r3, ip, r1, lsr #23
 800017e:	ea92 0f0c 	teqne	r2, ip
 8000182:	ea93 0f0c 	teqne	r3, ip
 8000186:	d06f      	beq.n	8000268 <__aeabi_fmul+0xf8>
 8000188:	441a      	add	r2, r3
 800018a:	ea80 0c01 	eor.w	ip, r0, r1
 800018e:	0240      	lsls	r0, r0, #9
 8000190:	bf18      	it	ne
 8000192:	ea5f 2141 	movsne.w	r1, r1, lsl #9
 8000196:	d01e      	beq.n	80001d6 <__aeabi_fmul+0x66>
 8000198:	f04f 6300 	mov.w	r3, #134217728	; 0x8000000
 800019c:	ea43 1050 	orr.w	r0, r3, r0, lsr #5
 80001a0:	ea43 1151 	orr.w	r1, r3, r1, lsr #5
 80001a4:	fba0 3101 	umull	r3, r1, r0, r1
 80001a8:	f00c 4000 	and.w	r0, ip, #2147483648	; 0x80000000
 80001ac:	f5b1 0f00 	cmp.w	r1, #8388608	; 0x800000
 80001b0:	bf3e      	ittt	cc
 80001b2:	0049      	lslcc	r1, r1, #1
 80001b4:	ea41 71d3 	orrcc.w	r1, r1, r3, lsr #31
 80001b8:	005b      	lslcc	r3, r3, #1
 80001ba:	ea40 0001 	orr.w	r0, r0, r1
 80001be:	f162 027f 	sbc.w	r2, r2, #127	; 0x7f
 80001c2:	2afd      	cmp	r2, #253	; 0xfd
 80001c4:	d81d      	bhi.n	8000202 <__aeabi_fmul+0x92>
 80001c6:	f1b3 4f00 	cmp.w	r3, #2147483648	; 0x80000000
 80001ca:	eb40 50c2 	adc.w	r0, r0, r2, lsl #23
 80001ce:	bf08      	it	eq
 80001d0:	f020 0001 	biceq.w	r0, r0, #1
 80001d4:	4770      	bx	lr
 80001d6:	f090 0f00 	teq	r0, #0
 80001da:	f00c 4c00 	and.w	ip, ip, #2147483648	; 0x80000000
 80001de:	bf08      	it	eq
 80001e0:	0249      	lsleq	r1, r1, #9
 80001e2:	ea4c 2050 	orr.w	r0, ip, r0, lsr #9
 80001e6:	ea40 2051 	orr.w	r0, r0, r1, lsr #9
 80001ea:	3a7f      	subs	r2, #127	; 0x7f
 80001ec:	bfc2      	ittt	gt
 80001ee:	f1d2 03ff 	rsbsgt	r3, r2, #255	; 0xff
 80001f2:	ea40 50c2 	orrgt.w	r0, r0, r2, lsl #23
 80001f6:	4770      	bxgt	lr
 80001f8:	f440 0000 	orr.w	r0, r0, #8388608	; 0x800000
 80001fc:	f04f 0300 	mov.w	r3, #0
 8000200:	3a01      	subs	r2, #1
 8000202:	dc5d      	bgt.n	80002c0 <__aeabi_fmul+0x150>
 8000204:	f112 0f19 	cmn.w	r2, #25
 8000208:	bfdc      	itt	le
 800020a:	f000 4000 	andle.w	r0, r0, #2147483648	; 0x80000000
 800020e:	4770      	bxle	lr
 8000210:	f1c2 0200 	rsb	r2, r2, #0
 8000214:	0041      	lsls	r1, r0, #1
 8000216:	fa21 f102 	lsr.w	r1, r1, r2
 800021a:	f1c2 0220 	rsb	r2, r2, #32
 800021e:	fa00 fc02 	lsl.w	ip, r0, r2
 8000222:	ea5f 0031 	movs.w	r0, r1, rrx
 8000226:	f140 0000 	adc.w	r0, r0, #0
 800022a:	ea53 034c 	orrs.w	r3, r3, ip, lsl #1
 800022e:	bf08      	it	eq
 8000230:	ea20 70dc 	biceq.w	r0, r0, ip, lsr #31
 8000234:	4770      	bx	lr
 8000236:	f092 0f00 	teq	r2, #0
 800023a:	f000 4c00 	and.w	ip, r0, #2147483648	; 0x80000000
 800023e:	bf02      	ittt	eq
 8000240:	0040      	lsleq	r0, r0, #1
 8000242:	f410 0f00 	tsteq.w	r0, #8388608	; 0x800000
 8000246:	3a01      	subeq	r2, #1
 8000248:	d0f9      	beq.n	800023e <__aeabi_fmul+0xce>
 800024a:	ea40 000c 	orr.w	r0, r0, ip
 800024e:	f093 0f00 	teq	r3, #0
 8000252:	f001 4c00 	and.w	ip, r1, #2147483648	; 0x80000000
 8000256:	bf02      	ittt	eq
 8000258:	0049      	lsleq	r1, r1, #1
 800025a:	f411 0f00 	tsteq.w	r1, #8388608	; 0x800000
 800025e:	3b01      	subeq	r3, #1
 8000260:	d0f9      	beq.n	8000256 <__aeabi_fmul+0xe6>
 8000262:	ea41 010c 	orr.w	r1, r1, ip
 8000266:	e78f      	b.n	8000188 <__aeabi_fmul+0x18>
 8000268:	ea0c 53d1 	and.w	r3, ip, r1, lsr #23
 800026c:	ea92 0f0c 	teq	r2, ip
 8000270:	bf18      	it	ne
 8000272:	ea93 0f0c 	teqne	r3, ip
 8000276:	d00a      	beq.n	800028e <__aeabi_fmul+0x11e>
 8000278:	f030 4c00 	bics.w	ip, r0, #2147483648	; 0x80000000
 800027c:	bf18      	it	ne
 800027e:	f031 4c00 	bicsne.w	ip, r1, #2147483648	; 0x80000000
 8000282:	d1d8      	bne.n	8000236 <__aeabi_fmul+0xc6>
 8000284:	ea80 0001 	eor.w	r0, r0, r1
 8000288:	f000 4000 	and.w	r0, r0, #2147483648	; 0x80000000
 800028c:	4770      	bx	lr
 800028e:	f090 0f00 	teq	r0, #0
 8000292:	bf17      	itett	ne
 8000294:	f090 4f00 	teqne	r0, #2147483648	; 0x80000000
 8000298:	4608      	moveq	r0, r1
 800029a:	f091 0f00 	teqne	r1, #0
 800029e:	f091 4f00 	teqne	r1, #2147483648	; 0x80000000
 80002a2:	d014      	beq.n	80002ce <__aeabi_fmul+0x15e>
 80002a4:	ea92 0f0c 	teq	r2, ip
 80002a8:	d101      	bne.n	80002ae <__aeabi_fmul+0x13e>
 80002aa:	0242      	lsls	r2, r0, #9
 80002ac:	d10f      	bne.n	80002ce <__aeabi_fmul+0x15e>
 80002ae:	ea93 0f0c 	teq	r3, ip
 80002b2:	d103      	bne.n	80002bc <__aeabi_fmul+0x14c>
 80002b4:	024b      	lsls	r3, r1, #9
 80002b6:	bf18      	it	ne
 80002b8:	4608      	movne	r0, r1
 80002ba:	d108      	bne.n	80002ce <__aeabi_fmul+0x15e>
 80002bc:	ea80 0001 	eor.w	r0, r0, r1
 80002c0:	f000 4000 	and.w	r0, r0, #2147483648	; 0x80000000
 80002c4:	f040 40fe 	orr.w	r0, r0, #2130706432	; 0x7f000000
 80002c8:	f440 0000 	orr.w	r0, r0, #8388608	; 0x800000
 80002cc:	4770      	bx	lr
 80002ce:	f040 40fe 	orr.w	r0, r0, #2130706432	; 0x7f000000
 80002d2:	f440 0040 	orr.w	r0, r0, #12582912	; 0xc00000
 80002d6:	4770      	bx	lr

080002d8 <__aeabi_drsub>:
 80002d8:	f081 4100 	eor.w	r1, r1, #2147483648	; 0x80000000
 80002dc:	e002      	b.n	80002e4 <__adddf3>
 80002de:	bf00      	nop

080002e0 <__aeabi_dsub>:
 80002e0:	f083 4300 	eor.w	r3, r3, #2147483648	; 0x80000000

080002e4 <__adddf3>:
 80002e4:	b530      	push	{r4, r5, lr}
 80002e6:	ea4f 0441 	mov.w	r4, r1, lsl #1
 80002ea:	ea4f 0543 	mov.w	r5, r3, lsl #1
 80002ee:	ea94 0f05 	teq	r4, r5
 80002f2:	bf08      	it	eq
 80002f4:	ea90 0f02 	teqeq	r0, r2
 80002f8:	bf1f      	itttt	ne
 80002fa:	ea54 0c00 	orrsne.w	ip, r4, r0
 80002fe:	ea55 0c02 	orrsne.w	ip, r5, r2
 8000302:	ea7f 5c64 	mvnsne.w	ip, r4, asr #21
 8000306:	ea7f 5c65 	mvnsne.w	ip, r5, asr #21
 800030a:	f000 80e2 	beq.w	80004d2 <__adddf3+0x1ee>
 800030e:	ea4f 5454 	mov.w	r4, r4, lsr #21
 8000312:	ebd4 5555 	rsbs	r5, r4, r5, lsr #21
 8000316:	bfb8      	it	lt
 8000318:	426d      	neglt	r5, r5
 800031a:	dd0c      	ble.n	8000336 <__adddf3+0x52>
 800031c:	442c      	add	r4, r5
 800031e:	ea80 0202 	eor.w	r2, r0, r2
 8000322:	ea81 0303 	eor.w	r3, r1, r3
 8000326:	ea82 0000 	eor.w	r0, r2, r0
 800032a:	ea83 0101 	eor.w	r1, r3, r1
 800032e:	ea80 0202 	eor.w	r2, r0, r2
 8000332:	ea81 0303 	eor.w	r3, r1, r3
 8000336:	2d36      	cmp	r5, #54	; 0x36
 8000338:	bf88      	it	hi
 800033a:	bd30      	pophi	{r4, r5, pc}
 800033c:	f011 4f00 	tst.w	r1, #2147483648	; 0x80000000
 8000340:	ea4f 3101 	mov.w	r1, r1, lsl #12
 8000344:	f44f 1c80 	mov.w	ip, #1048576	; 0x100000
 8000348:	ea4c 3111 	orr.w	r1, ip, r1, lsr #12
 800034c:	d002      	beq.n	8000354 <__adddf3+0x70>
 800034e:	4240      	negs	r0, r0
 8000350:	eb61 0141 	sbc.w	r1, r1, r1, lsl #1
 8000354:	f013 4f00 	tst.w	r3, #2147483648	; 0x80000000
 8000358:	ea4f 3303 	mov.w	r3, r3, lsl #12
 800035c:	ea4c 3313 	orr.w	r3, ip, r3, lsr #12
 8000360:	d002      	beq.n	8000368 <__adddf3+0x84>
 8000362:	4252      	negs	r2, r2
 8000364:	eb63 0343 	sbc.w	r3, r3, r3, lsl #1
 8000368:	ea94 0f05 	teq	r4, r5
 800036c:	f000 80a7 	beq.w	80004be <__adddf3+0x1da>
 8000370:	f1a4 0401 	sub.w	r4, r4, #1
 8000374:	f1d5 0e20 	rsbs	lr, r5, #32
 8000378:	db0d      	blt.n	8000396 <__adddf3+0xb2>
 800037a:	fa02 fc0e 	lsl.w	ip, r2, lr
 800037e:	fa22 f205 	lsr.w	r2, r2, r5
 8000382:	1880      	adds	r0, r0, r2
 8000384:	f141 0100 	adc.w	r1, r1, #0
 8000388:	fa03 f20e 	lsl.w	r2, r3, lr
 800038c:	1880      	adds	r0, r0, r2
 800038e:	fa43 f305 	asr.w	r3, r3, r5
 8000392:	4159      	adcs	r1, r3
 8000394:	e00e      	b.n	80003b4 <__adddf3+0xd0>
 8000396:	f1a5 0520 	sub.w	r5, r5, #32
 800039a:	f10e 0e20 	add.w	lr, lr, #32
 800039e:	2a01      	cmp	r2, #1
 80003a0:	fa03 fc0e 	lsl.w	ip, r3, lr
 80003a4:	bf28      	it	cs
 80003a6:	f04c 0c02 	orrcs.w	ip, ip, #2
 80003aa:	fa43 f305 	asr.w	r3, r3, r5
 80003ae:	18c0      	adds	r0, r0, r3
 80003b0:	eb51 71e3 	adcs.w	r1, r1, r3, asr #31
 80003b4:	f001 4500 	and.w	r5, r1, #2147483648	; 0x80000000
 80003b8:	d507      	bpl.n	80003ca <__adddf3+0xe6>
 80003ba:	f04f 0e00 	mov.w	lr, #0
 80003be:	f1dc 0c00 	rsbs	ip, ip, #0
 80003c2:	eb7e 0000 	sbcs.w	r0, lr, r0
 80003c6:	eb6e 0101 	sbc.w	r1, lr, r1
 80003ca:	f5b1 1f80 	cmp.w	r1, #1048576	; 0x100000
 80003ce:	d31b      	bcc.n	8000408 <__adddf3+0x124>
 80003d0:	f5b1 1f00 	cmp.w	r1, #2097152	; 0x200000
 80003d4:	d30c      	bcc.n	80003f0 <__adddf3+0x10c>
 80003d6:	0849      	lsrs	r1, r1, #1
 80003d8:	ea5f 0030 	movs.w	r0, r0, rrx
 80003dc:	ea4f 0c3c 	mov.w	ip, ip, rrx
 80003e0:	f104 0401 	add.w	r4, r4, #1
 80003e4:	ea4f 5244 	mov.w	r2, r4, lsl #21
 80003e8:	f512 0f80 	cmn.w	r2, #4194304	; 0x400000
 80003ec:	f080 809a 	bcs.w	8000524 <__adddf3+0x240>
 80003f0:	f1bc 4f00 	cmp.w	ip, #2147483648	; 0x80000000
 80003f4:	bf08      	it	eq
 80003f6:	ea5f 0c50 	movseq.w	ip, r0, lsr #1
 80003fa:	f150 0000 	adcs.w	r0, r0, #0
 80003fe:	eb41 5104 	adc.w	r1, r1, r4, lsl #20
 8000402:	ea41 0105 	orr.w	r1, r1, r5
 8000406:	bd30      	pop	{r4, r5, pc}
 8000408:	ea5f 0c4c 	movs.w	ip, ip, lsl #1
 800040c:	4140      	adcs	r0, r0
 800040e:	eb41 0101 	adc.w	r1, r1, r1
 8000412:	3c01      	subs	r4, #1
 8000414:	bf28      	it	cs
 8000416:	f5b1 1f80 	cmpcs.w	r1, #1048576	; 0x100000
 800041a:	d2e9      	bcs.n	80003f0 <__adddf3+0x10c>
 800041c:	f091 0f00 	teq	r1, #0
 8000420:	bf04      	itt	eq
 8000422:	4601      	moveq	r1, r0
 8000424:	2000      	moveq	r0, #0
 8000426:	fab1 f381 	clz	r3, r1
 800042a:	bf08      	it	eq
 800042c:	3320      	addeq	r3, #32
 800042e:	f1a3 030b 	sub.w	r3, r3, #11
 8000432:	f1b3 0220 	subs.w	r2, r3, #32
 8000436:	da0c      	bge.n	8000452 <__adddf3+0x16e>
 8000438:	320c      	adds	r2, #12
 800043a:	dd08      	ble.n	800044e <__adddf3+0x16a>
 800043c:	f102 0c14 	add.w	ip, r2, #20
 8000440:	f1c2 020c 	rsb	r2, r2, #12
 8000444:	fa01 f00c 	lsl.w	r0, r1, ip
 8000448:	fa21 f102 	lsr.w	r1, r1, r2
 800044c:	e00c      	b.n	8000468 <__adddf3+0x184>
 800044e:	f102 0214 	add.w	r2, r2, #20
 8000452:	bfd8      	it	le
 8000454:	f1c2 0c20 	rsble	ip, r2, #32
 8000458:	fa01 f102 	lsl.w	r1, r1, r2
 800045c:	fa20 fc0c 	lsr.w	ip, r0, ip
 8000460:	bfdc      	itt	le
 8000462:	ea41 010c 	orrle.w	r1, r1, ip
 8000466:	4090      	lslle	r0, r2
 8000468:	1ae4      	subs	r4, r4, r3
 800046a:	bfa2      	ittt	ge
 800046c:	eb01 5104 	addge.w	r1, r1, r4, lsl #20
 8000470:	4329      	orrge	r1, r5
 8000472:	bd30      	popge	{r4, r5, pc}
 8000474:	ea6f 0404 	mvn.w	r4, r4
 8000478:	3c1f      	subs	r4, #31
 800047a:	da1c      	bge.n	80004b6 <__adddf3+0x1d2>
 800047c:	340c      	adds	r4, #12
 800047e:	dc0e      	bgt.n	800049e <__adddf3+0x1ba>
 8000480:	f104 0414 	add.w	r4, r4, #20
 8000484:	f1c4 0220 	rsb	r2, r4, #32
 8000488:	fa20 f004 	lsr.w	r0, r0, r4
 800048c:	fa01 f302 	lsl.w	r3, r1, r2
 8000490:	ea40 0003 	orr.w	r0, r0, r3
 8000494:	fa21 f304 	lsr.w	r3, r1, r4
 8000498:	ea45 0103 	orr.w	r1, r5, r3
 800049c:	bd30      	pop	{r4, r5, pc}
 800049e:	f1c4 040c 	rsb	r4, r4, #12
 80004a2:	f1c4 0220 	rsb	r2, r4, #32
 80004a6:	fa20 f002 	lsr.w	r0, r0, r2
 80004aa:	fa01 f304 	lsl.w	r3, r1, r4
 80004ae:	ea40 0003 	orr.w	r0, r0, r3
 80004b2:	4629      	mov	r1, r5
 80004b4:	bd30      	pop	{r4, r5, pc}
 80004b6:	fa21 f004 	lsr.w	r0, r1, r4
 80004ba:	4629      	mov	r1, r5
 80004bc:	bd30      	pop	{r4, r5, pc}
 80004be:	f094 0f00 	teq	r4, #0
 80004c2:	f483 1380 	eor.w	r3, r3, #1048576	; 0x100000
 80004c6:	bf06      	itte	eq
 80004c8:	f481 1180 	eoreq.w	r1, r1, #1048576	; 0x100000
 80004cc:	3401      	addeq	r4, #1
 80004ce:	3d01      	subne	r5, #1
 80004d0:	e74e      	b.n	8000370 <__adddf3+0x8c>
 80004d2:	ea7f 5c64 	mvns.w	ip, r4, asr #21
 80004d6:	bf18      	it	ne
 80004d8:	ea7f 5c65 	mvnsne.w	ip, r5, asr #21
 80004dc:	d029      	beq.n	8000532 <__adddf3+0x24e>
 80004de:	ea94 0f05 	teq	r4, r5
 80004e2:	bf08      	it	eq
 80004e4:	ea90 0f02 	teqeq	r0, r2
 80004e8:	d005      	beq.n	80004f6 <__adddf3+0x212>
 80004ea:	ea54 0c00 	orrs.w	ip, r4, r0
 80004ee:	bf04      	itt	eq
 80004f0:	4619      	moveq	r1, r3
 80004f2:	4610      	moveq	r0, r2
 80004f4:	bd30      	pop	{r4, r5, pc}
 80004f6:	ea91 0f03 	teq	r1, r3
 80004fa:	bf1e      	ittt	ne
 80004fc:	2100      	movne	r1, #0
 80004fe:	2000      	movne	r0, #0
 8000500:	bd30      	popne	{r4, r5, pc}
 8000502:	ea5f 5c54 	movs.w	ip, r4, lsr #21
 8000506:	d105      	bne.n	8000514 <__adddf3+0x230>
 8000508:	0040      	lsls	r0, r0, #1
 800050a:	4149      	adcs	r1, r1
 800050c:	bf28      	it	cs
 800050e:	f041 4100 	orrcs.w	r1, r1, #2147483648	; 0x80000000
 8000512:	bd30      	pop	{r4, r5, pc}
 8000514:	f514 0480 	adds.w	r4, r4, #4194304	; 0x400000
 8000518:	bf3c      	itt	cc
 800051a:	f501 1180 	addcc.w	r1, r1, #1048576	; 0x100000
 800051e:	bd30      	popcc	{r4, r5, pc}
 8000520:	f001 4500 	and.w	r5, r1, #2147483648	; 0x80000000
 8000524:	f045 41fe 	orr.w	r1, r5, #2130706432	; 0x7f000000
 8000528:	f441 0170 	orr.w	r1, r1, #15728640	; 0xf00000
 800052c:	f04f 0000 	mov.w	r0, #0
 8000530:	bd30      	pop	{r4, r5, pc}
 8000532:	ea7f 5c64 	mvns.w	ip, r4, asr #21
 8000536:	bf1a      	itte	ne
 8000538:	4619      	movne	r1, r3
 800053a:	4610      	movne	r0, r2
 800053c:	ea7f 5c65 	mvnseq.w	ip, r5, asr #21
 8000540:	bf1c      	itt	ne
 8000542:	460b      	movne	r3, r1
 8000544:	4602      	movne	r2, r0
 8000546:	ea50 3401 	orrs.w	r4, r0, r1, lsl #12
 800054a:	bf06      	itte	eq
 800054c:	ea52 3503 	orrseq.w	r5, r2, r3, lsl #12
 8000550:	ea91 0f03 	teqeq	r1, r3
 8000554:	f441 2100 	orrne.w	r1, r1, #524288	; 0x80000
 8000558:	bd30      	pop	{r4, r5, pc}
 800055a:	bf00      	nop

0800055c <__aeabi_ui2d>:
 800055c:	f090 0f00 	teq	r0, #0
 8000560:	bf04      	itt	eq
 8000562:	2100      	moveq	r1, #0
 8000564:	4770      	bxeq	lr
 8000566:	b530      	push	{r4, r5, lr}
 8000568:	f44f 6480 	mov.w	r4, #1024	; 0x400
 800056c:	f104 0432 	add.w	r4, r4, #50	; 0x32
 8000570:	f04f 0500 	mov.w	r5, #0
 8000574:	f04f 0100 	mov.w	r1, #0
 8000578:	e750      	b.n	800041c <__adddf3+0x138>
 800057a:	bf00      	nop

0800057c <__aeabi_i2d>:
 800057c:	f090 0f00 	teq	r0, #0
 8000580:	bf04      	itt	eq
 8000582:	2100      	moveq	r1, #0
 8000584:	4770      	bxeq	lr
 8000586:	b530      	push	{r4, r5, lr}
 8000588:	f44f 6480 	mov.w	r4, #1024	; 0x400
 800058c:	f104 0432 	add.w	r4, r4, #50	; 0x32
 8000590:	f010 4500 	ands.w	r5, r0, #2147483648	; 0x80000000
 8000594:	bf48      	it	mi
 8000596:	4240      	negmi	r0, r0
 8000598:	f04f 0100 	mov.w	r1, #0
 800059c:	e73e      	b.n	800041c <__adddf3+0x138>
 800059e:	bf00      	nop

080005a0 <__aeabi_f2d>:
 80005a0:	0042      	lsls	r2, r0, #1
 80005a2:	ea4f 01e2 	mov.w	r1, r2, asr #3
 80005a6:	ea4f 0131 	mov.w	r1, r1, rrx
 80005aa:	ea4f 7002 	mov.w	r0, r2, lsl #28
 80005ae:	bf1f      	itttt	ne
 80005b0:	f012 437f 	andsne.w	r3, r2, #4278190080	; 0xff000000
 80005b4:	f093 4f7f 	teqne	r3, #4278190080	; 0xff000000
 80005b8:	f081 5160 	eorne.w	r1, r1, #939524096	; 0x38000000
 80005bc:	4770      	bxne	lr
 80005be:	f032 427f 	bics.w	r2, r2, #4278190080	; 0xff000000
 80005c2:	bf08      	it	eq
 80005c4:	4770      	bxeq	lr
 80005c6:	f093 4f7f 	teq	r3, #4278190080	; 0xff000000
 80005ca:	bf04      	itt	eq
 80005cc:	f441 2100 	orreq.w	r1, r1, #524288	; 0x80000
 80005d0:	4770      	bxeq	lr
 80005d2:	b530      	push	{r4, r5, lr}
 80005d4:	f44f 7460 	mov.w	r4, #896	; 0x380
 80005d8:	f001 4500 	and.w	r5, r1, #2147483648	; 0x80000000
 80005dc:	f021 4100 	bic.w	r1, r1, #2147483648	; 0x80000000
 80005e0:	e71c      	b.n	800041c <__adddf3+0x138>
 80005e2:	bf00      	nop

080005e4 <__aeabi_ul2d>:
 80005e4:	ea50 0201 	orrs.w	r2, r0, r1
 80005e8:	bf08      	it	eq
 80005ea:	4770      	bxeq	lr
 80005ec:	b530      	push	{r4, r5, lr}
 80005ee:	f04f 0500 	mov.w	r5, #0
 80005f2:	e00a      	b.n	800060a <__aeabi_l2d+0x16>

080005f4 <__aeabi_l2d>:
 80005f4:	ea50 0201 	orrs.w	r2, r0, r1
 80005f8:	bf08      	it	eq
 80005fa:	4770      	bxeq	lr
 80005fc:	b530      	push	{r4, r5, lr}
 80005fe:	f011 4500 	ands.w	r5, r1, #2147483648	; 0x80000000
 8000602:	d502      	bpl.n	800060a <__aeabi_l2d+0x16>
 8000604:	4240      	negs	r0, r0
 8000606:	eb61 0141 	sbc.w	r1, r1, r1, lsl #1
 800060a:	f44f 6480 	mov.w	r4, #1024	; 0x400
 800060e:	f104 0432 	add.w	r4, r4, #50	; 0x32
 8000612:	ea5f 5c91 	movs.w	ip, r1, lsr #22
 8000616:	f43f aed8 	beq.w	80003ca <__adddf3+0xe6>
 800061a:	f04f 0203 	mov.w	r2, #3
 800061e:	ea5f 0cdc 	movs.w	ip, ip, lsr #3
 8000622:	bf18      	it	ne
 8000624:	3203      	addne	r2, #3
 8000626:	ea5f 0cdc 	movs.w	ip, ip, lsr #3
 800062a:	bf18      	it	ne
 800062c:	3203      	addne	r2, #3
 800062e:	eb02 02dc 	add.w	r2, r2, ip, lsr #3
 8000632:	f1c2 0320 	rsb	r3, r2, #32
 8000636:	fa00 fc03 	lsl.w	ip, r0, r3
 800063a:	fa20 f002 	lsr.w	r0, r0, r2
 800063e:	fa01 fe03 	lsl.w	lr, r1, r3
 8000642:	ea40 000e 	orr.w	r0, r0, lr
 8000646:	fa21 f102 	lsr.w	r1, r1, r2
 800064a:	4414      	add	r4, r2
 800064c:	e6bd      	b.n	80003ca <__adddf3+0xe6>
 800064e:	bf00      	nop

08000650 <__aeabi_dmul>:
 8000650:	b570      	push	{r4, r5, r6, lr}
 8000652:	f04f 0cff 	mov.w	ip, #255	; 0xff
 8000656:	f44c 6ce0 	orr.w	ip, ip, #1792	; 0x700
 800065a:	ea1c 5411 	ands.w	r4, ip, r1, lsr #20
 800065e:	bf1d      	ittte	ne
 8000660:	ea1c 5513 	andsne.w	r5, ip, r3, lsr #20
 8000664:	ea94 0f0c 	teqne	r4, ip
 8000668:	ea95 0f0c 	teqne	r5, ip
 800066c:	f000 f8de 	bleq	800082c <__aeabi_dmul+0x1dc>
 8000670:	442c      	add	r4, r5
 8000672:	ea81 0603 	eor.w	r6, r1, r3
 8000676:	ea21 514c 	bic.w	r1, r1, ip, lsl #21
 800067a:	ea23 534c 	bic.w	r3, r3, ip, lsl #21
 800067e:	ea50 3501 	orrs.w	r5, r0, r1, lsl #12
 8000682:	bf18      	it	ne
 8000684:	ea52 3503 	orrsne.w	r5, r2, r3, lsl #12
 8000688:	f441 1180 	orr.w	r1, r1, #1048576	; 0x100000
 800068c:	f443 1380 	orr.w	r3, r3, #1048576	; 0x100000
 8000690:	d038      	beq.n	8000704 <__aeabi_dmul+0xb4>
 8000692:	fba0 ce02 	umull	ip, lr, r0, r2
 8000696:	f04f 0500 	mov.w	r5, #0
 800069a:	fbe1 e502 	umlal	lr, r5, r1, r2
 800069e:	f006 4200 	and.w	r2, r6, #2147483648	; 0x80000000
 80006a2:	fbe0 e503 	umlal	lr, r5, r0, r3
 80006a6:	f04f 0600 	mov.w	r6, #0
 80006aa:	fbe1 5603 	umlal	r5, r6, r1, r3
 80006ae:	f09c 0f00 	teq	ip, #0
 80006b2:	bf18      	it	ne
 80006b4:	f04e 0e01 	orrne.w	lr, lr, #1
 80006b8:	f1a4 04ff 	sub.w	r4, r4, #255	; 0xff
 80006bc:	f5b6 7f00 	cmp.w	r6, #512	; 0x200
 80006c0:	f564 7440 	sbc.w	r4, r4, #768	; 0x300
 80006c4:	d204      	bcs.n	80006d0 <__aeabi_dmul+0x80>
 80006c6:	ea5f 0e4e 	movs.w	lr, lr, lsl #1
 80006ca:	416d      	adcs	r5, r5
 80006cc:	eb46 0606 	adc.w	r6, r6, r6
 80006d0:	ea42 21c6 	orr.w	r1, r2, r6, lsl #11
 80006d4:	ea41 5155 	orr.w	r1, r1, r5, lsr #21
 80006d8:	ea4f 20c5 	mov.w	r0, r5, lsl #11
 80006dc:	ea40 505e 	orr.w	r0, r0, lr, lsr #21
 80006e0:	ea4f 2ece 	mov.w	lr, lr, lsl #11
 80006e4:	f1b4 0cfd 	subs.w	ip, r4, #253	; 0xfd
 80006e8:	bf88      	it	hi
 80006ea:	f5bc 6fe0 	cmphi.w	ip, #1792	; 0x700
 80006ee:	d81e      	bhi.n	800072e <__aeabi_dmul+0xde>
 80006f0:	f1be 4f00 	cmp.w	lr, #2147483648	; 0x80000000
 80006f4:	bf08      	it	eq
 80006f6:	ea5f 0e50 	movseq.w	lr, r0, lsr #1
 80006fa:	f150 0000 	adcs.w	r0, r0, #0
 80006fe:	eb41 5104 	adc.w	r1, r1, r4, lsl #20
 8000702:	bd70      	pop	{r4, r5, r6, pc}
 8000704:	f006 4600 	and.w	r6, r6, #2147483648	; 0x80000000
 8000708:	ea46 0101 	orr.w	r1, r6, r1
 800070c:	ea40 0002 	orr.w	r0, r0, r2
 8000710:	ea81 0103 	eor.w	r1, r1, r3
 8000714:	ebb4 045c 	subs.w	r4, r4, ip, lsr #1
 8000718:	bfc2      	ittt	gt
 800071a:	ebd4 050c 	rsbsgt	r5, r4, ip
 800071e:	ea41 5104 	orrgt.w	r1, r1, r4, lsl #20
 8000722:	bd70      	popgt	{r4, r5, r6, pc}
 8000724:	f441 1180 	orr.w	r1, r1, #1048576	; 0x100000
 8000728:	f04f 0e00 	mov.w	lr, #0
 800072c:	3c01      	subs	r4, #1
 800072e:	f300 80ab 	bgt.w	8000888 <__aeabi_dmul+0x238>
 8000732:	f114 0f36 	cmn.w	r4, #54	; 0x36
 8000736:	bfde      	ittt	le
 8000738:	2000      	movle	r0, #0
 800073a:	f001 4100 	andle.w	r1, r1, #2147483648	; 0x80000000
 800073e:	bd70      	pople	{r4, r5, r6, pc}
 8000740:	f1c4 0400 	rsb	r4, r4, #0
 8000744:	3c20      	subs	r4, #32
 8000746:	da35      	bge.n	80007b4 <__aeabi_dmul+0x164>
 8000748:	340c      	adds	r4, #12
 800074a:	dc1b      	bgt.n	8000784 <__aeabi_dmul+0x134>
 800074c:	f104 0414 	add.w	r4, r4, #20
 8000750:	f1c4 0520 	rsb	r5, r4, #32
 8000754:	fa00 f305 	lsl.w	r3, r0, r5
 8000758:	fa20 f004 	lsr.w	r0, r0, r4
 800075c:	fa01 f205 	lsl.w	r2, r1, r5
 8000760:	ea40 0002 	orr.w	r0, r0, r2
 8000764:	f001 4200 	and.w	r2, r1, #2147483648	; 0x80000000
 8000768:	f021 4100 	bic.w	r1, r1, #2147483648	; 0x80000000
 800076c:	eb10 70d3 	adds.w	r0, r0, r3, lsr #31
 8000770:	fa21 f604 	lsr.w	r6, r1, r4
 8000774:	eb42 0106 	adc.w	r1, r2, r6
 8000778:	ea5e 0e43 	orrs.w	lr, lr, r3, lsl #1
 800077c:	bf08      	it	eq
 800077e:	ea20 70d3 	biceq.w	r0, r0, r3, lsr #31
 8000782:	bd70      	pop	{r4, r5, r6, pc}
 8000784:	f1c4 040c 	rsb	r4, r4, #12
 8000788:	f1c4 0520 	rsb	r5, r4, #32
 800078c:	fa00 f304 	lsl.w	r3, r0, r4
 8000790:	fa20 f005 	lsr.w	r0, r0, r5
 8000794:	fa01 f204 	lsl.w	r2, r1, r4
 8000798:	ea40 0002 	orr.w	r0, r0, r2
 800079c:	f001 4100 	and.w	r1, r1, #2147483648	; 0x80000000
 80007a0:	eb10 70d3 	adds.w	r0, r0, r3, lsr #31
 80007a4:	f141 0100 	adc.w	r1, r1, #0
 80007a8:	ea5e 0e43 	orrs.w	lr, lr, r3, lsl #1
 80007ac:	bf08      	it	eq
 80007ae:	ea20 70d3 	biceq.w	r0, r0, r3, lsr #31
 80007b2:	bd70      	pop	{r4, r5, r6, pc}
 80007b4:	f1c4 0520 	rsb	r5, r4, #32
 80007b8:	fa00 f205 	lsl.w	r2, r0, r5
 80007bc:	ea4e 0e02 	orr.w	lr, lr, r2
 80007c0:	fa20 f304 	lsr.w	r3, r0, r4
 80007c4:	fa01 f205 	lsl.w	r2, r1, r5
 80007c8:	ea43 0302 	orr.w	r3, r3, r2
 80007cc:	fa21 f004 	lsr.w	r0, r1, r4
 80007d0:	f001 4100 	and.w	r1, r1, #2147483648	; 0x80000000
 80007d4:	fa21 f204 	lsr.w	r2, r1, r4
 80007d8:	ea20 0002 	bic.w	r0, r0, r2
 80007dc:	eb00 70d3 	add.w	r0, r0, r3, lsr #31
 80007e0:	ea5e 0e43 	orrs.w	lr, lr, r3, lsl #1
 80007e4:	bf08      	it	eq
 80007e6:	ea20 70d3 	biceq.w	r0, r0, r3, lsr #31
 80007ea:	bd70      	pop	{r4, r5, r6, pc}
 80007ec:	f094 0f00 	teq	r4, #0
 80007f0:	d10f      	bne.n	8000812 <__aeabi_dmul+0x1c2>
 80007f2:	f001 4600 	and.w	r6, r1, #2147483648	; 0x80000000
 80007f6:	0040      	lsls	r0, r0, #1
 80007f8:	eb41 0101 	adc.w	r1, r1, r1
 80007fc:	f411 1f80 	tst.w	r1, #1048576	; 0x100000
 8000800:	bf08      	it	eq
 8000802:	3c01      	subeq	r4, #1
 8000804:	d0f7      	beq.n	80007f6 <__aeabi_dmul+0x1a6>
 8000806:	ea41 0106 	orr.w	r1, r1, r6
 800080a:	f095 0f00 	teq	r5, #0
 800080e:	bf18      	it	ne
 8000810:	4770      	bxne	lr
 8000812:	f003 4600 	and.w	r6, r3, #2147483648	; 0x80000000
 8000816:	0052      	lsls	r2, r2, #1
 8000818:	eb43 0303 	adc.w	r3, r3, r3
 800081c:	f413 1f80 	tst.w	r3, #1048576	; 0x100000
 8000820:	bf08      	it	eq
 8000822:	3d01      	subeq	r5, #1
 8000824:	d0f7      	beq.n	8000816 <__aeabi_dmul+0x1c6>
 8000826:	ea43 0306 	orr.w	r3, r3, r6
 800082a:	4770      	bx	lr
 800082c:	ea94 0f0c 	teq	r4, ip
 8000830:	ea0c 5513 	and.w	r5, ip, r3, lsr #20
 8000834:	bf18      	it	ne
 8000836:	ea95 0f0c 	teqne	r5, ip
 800083a:	d00c      	beq.n	8000856 <__aeabi_dmul+0x206>
 800083c:	ea50 0641 	orrs.w	r6, r0, r1, lsl #1
 8000840:	bf18      	it	ne
 8000842:	ea52 0643 	orrsne.w	r6, r2, r3, lsl #1
 8000846:	d1d1      	bne.n	80007ec <__aeabi_dmul+0x19c>
 8000848:	ea81 0103 	eor.w	r1, r1, r3
 800084c:	f001 4100 	and.w	r1, r1, #2147483648	; 0x80000000
 8000850:	f04f 0000 	mov.w	r0, #0
 8000854:	bd70      	pop	{r4, r5, r6, pc}
 8000856:	ea50 0641 	orrs.w	r6, r0, r1, lsl #1
 800085a:	bf06      	itte	eq
 800085c:	4610      	moveq	r0, r2
 800085e:	4619      	moveq	r1, r3
 8000860:	ea52 0643 	orrsne.w	r6, r2, r3, lsl #1
 8000864:	d019      	beq.n	800089a <__aeabi_dmul+0x24a>
 8000866:	ea94 0f0c 	teq	r4, ip
 800086a:	d102      	bne.n	8000872 <__aeabi_dmul+0x222>
 800086c:	ea50 3601 	orrs.w	r6, r0, r1, lsl #12
 8000870:	d113      	bne.n	800089a <__aeabi_dmul+0x24a>
 8000872:	ea95 0f0c 	teq	r5, ip
 8000876:	d105      	bne.n	8000884 <__aeabi_dmul+0x234>
 8000878:	ea52 3603 	orrs.w	r6, r2, r3, lsl #12
 800087c:	bf1c      	itt	ne
 800087e:	4610      	movne	r0, r2
 8000880:	4619      	movne	r1, r3
 8000882:	d10a      	bne.n	800089a <__aeabi_dmul+0x24a>
 8000884:	ea81 0103 	eor.w	r1, r1, r3
 8000888:	f001 4100 	and.w	r1, r1, #2147483648	; 0x80000000
 800088c:	f041 41fe 	orr.w	r1, r1, #2130706432	; 0x7f000000
 8000890:	f441 0170 	orr.w	r1, r1, #15728640	; 0xf00000
 8000894:	f04f 0000 	mov.w	r0, #0
 8000898:	bd70      	pop	{r4, r5, r6, pc}
 800089a:	f041 41fe 	orr.w	r1, r1, #2130706432	; 0x7f000000
 800089e:	f441 0178 	orr.w	r1, r1, #16252928	; 0xf80000
 80008a2:	bd70      	pop	{r4, r5, r6, pc}

080008a4 <__aeabi_ddiv>:
 80008a4:	b570      	push	{r4, r5, r6, lr}
 80008a6:	f04f 0cff 	mov.w	ip, #255	; 0xff
 80008aa:	f44c 6ce0 	orr.w	ip, ip, #1792	; 0x700
 80008ae:	ea1c 5411 	ands.w	r4, ip, r1, lsr #20
 80008b2:	bf1d      	ittte	ne
 80008b4:	ea1c 5513 	andsne.w	r5, ip, r3, lsr #20
 80008b8:	ea94 0f0c 	teqne	r4, ip
 80008bc:	ea95 0f0c 	teqne	r5, ip
 80008c0:	f000 f8a7 	bleq	8000a12 <__aeabi_ddiv+0x16e>
 80008c4:	eba4 0405 	sub.w	r4, r4, r5
 80008c8:	ea81 0e03 	eor.w	lr, r1, r3
 80008cc:	ea52 3503 	orrs.w	r5, r2, r3, lsl #12
 80008d0:	ea4f 3101 	mov.w	r1, r1, lsl #12
 80008d4:	f000 8088 	beq.w	80009e8 <__aeabi_ddiv+0x144>
 80008d8:	ea4f 3303 	mov.w	r3, r3, lsl #12
 80008dc:	f04f 5580 	mov.w	r5, #268435456	; 0x10000000
 80008e0:	ea45 1313 	orr.w	r3, r5, r3, lsr #4
 80008e4:	ea43 6312 	orr.w	r3, r3, r2, lsr #24
 80008e8:	ea4f 2202 	mov.w	r2, r2, lsl #8
 80008ec:	ea45 1511 	orr.w	r5, r5, r1, lsr #4
 80008f0:	ea45 6510 	orr.w	r5, r5, r0, lsr #24
 80008f4:	ea4f 2600 	mov.w	r6, r0, lsl #8
 80008f8:	f00e 4100 	and.w	r1, lr, #2147483648	; 0x80000000
 80008fc:	429d      	cmp	r5, r3
 80008fe:	bf08      	it	eq
 8000900:	4296      	cmpeq	r6, r2
 8000902:	f144 04fd 	adc.w	r4, r4, #253	; 0xfd
 8000906:	f504 7440 	add.w	r4, r4, #768	; 0x300
 800090a:	d202      	bcs.n	8000912 <__aeabi_ddiv+0x6e>
 800090c:	085b      	lsrs	r3, r3, #1
 800090e:	ea4f 0232 	mov.w	r2, r2, rrx
 8000912:	1ab6      	subs	r6, r6, r2
 8000914:	eb65 0503 	sbc.w	r5, r5, r3
 8000918:	085b      	lsrs	r3, r3, #1
 800091a:	ea4f 0232 	mov.w	r2, r2, rrx
 800091e:	f44f 1080 	mov.w	r0, #1048576	; 0x100000
 8000922:	f44f 2c00 	mov.w	ip, #524288	; 0x80000
 8000926:	ebb6 0e02 	subs.w	lr, r6, r2
 800092a:	eb75 0e03 	sbcs.w	lr, r5, r3
 800092e:	bf22      	ittt	cs
 8000930:	1ab6      	subcs	r6, r6, r2
 8000932:	4675      	movcs	r5, lr
 8000934:	ea40 000c 	orrcs.w	r0, r0, ip
 8000938:	085b      	lsrs	r3, r3, #1
 800093a:	ea4f 0232 	mov.w	r2, r2, rrx
 800093e:	ebb6 0e02 	subs.w	lr, r6, r2
 8000942:	eb75 0e03 	sbcs.w	lr, r5, r3
 8000946:	bf22      	ittt	cs
 8000948:	1ab6      	subcs	r6, r6, r2
 800094a:	4675      	movcs	r5, lr
 800094c:	ea40 005c 	orrcs.w	r0, r0, ip, lsr #1
 8000950:	085b      	lsrs	r3, r3, #1
 8000952:	ea4f 0232 	mov.w	r2, r2, rrx
 8000956:	ebb6 0e02 	subs.w	lr, r6, r2
 800095a:	eb75 0e03 	sbcs.w	lr, r5, r3
 800095e:	bf22      	ittt	cs
 8000960:	1ab6      	subcs	r6, r6, r2
 8000962:	4675      	movcs	r5, lr
 8000964:	ea40 009c 	orrcs.w	r0, r0, ip, lsr #2
 8000968:	085b      	lsrs	r3, r3, #1
 800096a:	ea4f 0232 	mov.w	r2, r2, rrx
 800096e:	ebb6 0e02 	subs.w	lr, r6, r2
 8000972:	eb75 0e03 	sbcs.w	lr, r5, r3
 8000976:	bf22      	ittt	cs
 8000978:	1ab6      	subcs	r6, r6, r2
 800097a:	4675      	movcs	r5, lr
 800097c:	ea40 00dc 	orrcs.w	r0, r0, ip, lsr #3
 8000980:	ea55 0e06 	orrs.w	lr, r5, r6
 8000984:	d018      	beq.n	80009b8 <__aeabi_ddiv+0x114>
 8000986:	ea4f 1505 	mov.w	r5, r5, lsl #4
 800098a:	ea45 7516 	orr.w	r5, r5, r6, lsr #28
 800098e:	ea4f 1606 	mov.w	r6, r6, lsl #4
 8000992:	ea4f 03c3 	mov.w	r3, r3, lsl #3
 8000996:	ea43 7352 	orr.w	r3, r3, r2, lsr #29
 800099a:	ea4f 02c2 	mov.w	r2, r2, lsl #3
 800099e:	ea5f 1c1c 	movs.w	ip, ip, lsr #4
 80009a2:	d1c0      	bne.n	8000926 <__aeabi_ddiv+0x82>
 80009a4:	f411 1f80 	tst.w	r1, #1048576	; 0x100000
 80009a8:	d10b      	bne.n	80009c2 <__aeabi_ddiv+0x11e>
 80009aa:	ea41 0100 	orr.w	r1, r1, r0
 80009ae:	f04f 0000 	mov.w	r0, #0
 80009b2:	f04f 4c00 	mov.w	ip, #2147483648	; 0x80000000
 80009b6:	e7b6      	b.n	8000926 <__aeabi_ddiv+0x82>
 80009b8:	f411 1f80 	tst.w	r1, #1048576	; 0x100000
 80009bc:	bf04      	itt	eq
 80009be:	4301      	orreq	r1, r0
 80009c0:	2000      	moveq	r0, #0
 80009c2:	f1b4 0cfd 	subs.w	ip, r4, #253	; 0xfd
 80009c6:	bf88      	it	hi
 80009c8:	f5bc 6fe0 	cmphi.w	ip, #1792	; 0x700
 80009cc:	f63f aeaf 	bhi.w	800072e <__aeabi_dmul+0xde>
 80009d0:	ebb5 0c03 	subs.w	ip, r5, r3
 80009d4:	bf04      	itt	eq
 80009d6:	ebb6 0c02 	subseq.w	ip, r6, r2
 80009da:	ea5f 0c50 	movseq.w	ip, r0, lsr #1
 80009de:	f150 0000 	adcs.w	r0, r0, #0
 80009e2:	eb41 5104 	adc.w	r1, r1, r4, lsl #20
 80009e6:	bd70      	pop	{r4, r5, r6, pc}
 80009e8:	f00e 4e00 	and.w	lr, lr, #2147483648	; 0x80000000
 80009ec:	ea4e 3111 	orr.w	r1, lr, r1, lsr #12
 80009f0:	eb14 045c 	adds.w	r4, r4, ip, lsr #1
 80009f4:	bfc2      	ittt	gt
 80009f6:	ebd4 050c 	rsbsgt	r5, r4, ip
 80009fa:	ea41 5104 	orrgt.w	r1, r1, r4, lsl #20
 80009fe:	bd70      	popgt	{r4, r5, r6, pc}
 8000a00:	f441 1180 	orr.w	r1, r1, #1048576	; 0x100000
 8000a04:	f04f 0e00 	mov.w	lr, #0
 8000a08:	3c01      	subs	r4, #1
 8000a0a:	e690      	b.n	800072e <__aeabi_dmul+0xde>
 8000a0c:	ea45 0e06 	orr.w	lr, r5, r6
 8000a10:	e68d      	b.n	800072e <__aeabi_dmul+0xde>
 8000a12:	ea0c 5513 	and.w	r5, ip, r3, lsr #20
 8000a16:	ea94 0f0c 	teq	r4, ip
 8000a1a:	bf08      	it	eq
 8000a1c:	ea95 0f0c 	teqeq	r5, ip
 8000a20:	f43f af3b 	beq.w	800089a <__aeabi_dmul+0x24a>
 8000a24:	ea94 0f0c 	teq	r4, ip
 8000a28:	d10a      	bne.n	8000a40 <__aeabi_ddiv+0x19c>
 8000a2a:	ea50 3401 	orrs.w	r4, r0, r1, lsl #12
 8000a2e:	f47f af34 	bne.w	800089a <__aeabi_dmul+0x24a>
 8000a32:	ea95 0f0c 	teq	r5, ip
 8000a36:	f47f af25 	bne.w	8000884 <__aeabi_dmul+0x234>
 8000a3a:	4610      	mov	r0, r2
 8000a3c:	4619      	mov	r1, r3
 8000a3e:	e72c      	b.n	800089a <__aeabi_dmul+0x24a>
 8000a40:	ea95 0f0c 	teq	r5, ip
 8000a44:	d106      	bne.n	8000a54 <__aeabi_ddiv+0x1b0>
 8000a46:	ea52 3503 	orrs.w	r5, r2, r3, lsl #12
 8000a4a:	f43f aefd 	beq.w	8000848 <__aeabi_dmul+0x1f8>
 8000a4e:	4610      	mov	r0, r2
 8000a50:	4619      	mov	r1, r3
 8000a52:	e722      	b.n	800089a <__aeabi_dmul+0x24a>
 8000a54:	ea50 0641 	orrs.w	r6, r0, r1, lsl #1
 8000a58:	bf18      	it	ne
 8000a5a:	ea52 0643 	orrsne.w	r6, r2, r3, lsl #1
 8000a5e:	f47f aec5 	bne.w	80007ec <__aeabi_dmul+0x19c>
 8000a62:	ea50 0441 	orrs.w	r4, r0, r1, lsl #1
 8000a66:	f47f af0d 	bne.w	8000884 <__aeabi_dmul+0x234>
 8000a6a:	ea52 0543 	orrs.w	r5, r2, r3, lsl #1
 8000a6e:	f47f aeeb 	bne.w	8000848 <__aeabi_dmul+0x1f8>
 8000a72:	e712      	b.n	800089a <__aeabi_dmul+0x24a>

08000a74 <__aeabi_d2f>:
 8000a74:	ea4f 0241 	mov.w	r2, r1, lsl #1
 8000a78:	f1b2 43e0 	subs.w	r3, r2, #1879048192	; 0x70000000
 8000a7c:	bf24      	itt	cs
 8000a7e:	f5b3 1c00 	subscs.w	ip, r3, #2097152	; 0x200000
 8000a82:	f1dc 5cfe 	rsbscs	ip, ip, #532676608	; 0x1fc00000
 8000a86:	d90d      	bls.n	8000aa4 <__aeabi_d2f+0x30>
 8000a88:	f001 4c00 	and.w	ip, r1, #2147483648	; 0x80000000
 8000a8c:	ea4f 02c0 	mov.w	r2, r0, lsl #3
 8000a90:	ea4c 7050 	orr.w	r0, ip, r0, lsr #29
 8000a94:	f1b2 4f00 	cmp.w	r2, #2147483648	; 0x80000000
 8000a98:	eb40 0083 	adc.w	r0, r0, r3, lsl #2
 8000a9c:	bf08      	it	eq
 8000a9e:	f020 0001 	biceq.w	r0, r0, #1
 8000aa2:	4770      	bx	lr
 8000aa4:	f011 4f80 	tst.w	r1, #1073741824	; 0x40000000
 8000aa8:	d121      	bne.n	8000aee <__aeabi_d2f+0x7a>
 8000aaa:	f113 7238 	adds.w	r2, r3, #48234496	; 0x2e00000
 8000aae:	bfbc      	itt	lt
 8000ab0:	f001 4000 	andlt.w	r0, r1, #2147483648	; 0x80000000
 8000ab4:	4770      	bxlt	lr
 8000ab6:	f441 1180 	orr.w	r1, r1, #1048576	; 0x100000
 8000aba:	ea4f 5252 	mov.w	r2, r2, lsr #21
 8000abe:	f1c2 0218 	rsb	r2, r2, #24
 8000ac2:	f1c2 0c20 	rsb	ip, r2, #32
 8000ac6:	fa10 f30c 	lsls.w	r3, r0, ip
 8000aca:	fa20 f002 	lsr.w	r0, r0, r2
 8000ace:	bf18      	it	ne
 8000ad0:	f040 0001 	orrne.w	r0, r0, #1
 8000ad4:	ea4f 23c1 	mov.w	r3, r1, lsl #11
 8000ad8:	ea4f 23d3 	mov.w	r3, r3, lsr #11
 8000adc:	fa03 fc0c 	lsl.w	ip, r3, ip
 8000ae0:	ea40 000c 	orr.w	r0, r0, ip
 8000ae4:	fa23 f302 	lsr.w	r3, r3, r2
 8000ae8:	ea4f 0343 	mov.w	r3, r3, lsl #1
 8000aec:	e7cc      	b.n	8000a88 <__aeabi_d2f+0x14>
 8000aee:	ea7f 5362 	mvns.w	r3, r2, asr #21
 8000af2:	d107      	bne.n	8000b04 <__aeabi_d2f+0x90>
 8000af4:	ea50 3301 	orrs.w	r3, r0, r1, lsl #12
 8000af8:	bf1e      	ittt	ne
 8000afa:	f04f 40fe 	movne.w	r0, #2130706432	; 0x7f000000
 8000afe:	f440 0040 	orrne.w	r0, r0, #12582912	; 0xc00000
 8000b02:	4770      	bxne	lr
 8000b04:	f001 4000 	and.w	r0, r1, #2147483648	; 0x80000000
 8000b08:	f040 40fe 	orr.w	r0, r0, #2130706432	; 0x7f000000
 8000b0c:	f440 0000 	orr.w	r0, r0, #8388608	; 0x800000
 8000b10:	4770      	bx	lr
 8000b12:	bf00      	nop

08000b14 <__aeabi_frsub>:
 8000b14:	f080 4000 	eor.w	r0, r0, #2147483648	; 0x80000000
 8000b18:	e002      	b.n	8000b20 <__addsf3>
 8000b1a:	bf00      	nop

08000b1c <__aeabi_fsub>:
 8000b1c:	f081 4100 	eor.w	r1, r1, #2147483648	; 0x80000000

08000b20 <__addsf3>:
 8000b20:	0042      	lsls	r2, r0, #1
 8000b22:	bf1f      	itttt	ne
 8000b24:	ea5f 0341 	movsne.w	r3, r1, lsl #1
 8000b28:	ea92 0f03 	teqne	r2, r3
 8000b2c:	ea7f 6c22 	mvnsne.w	ip, r2, asr #24
 8000b30:	ea7f 6c23 	mvnsne.w	ip, r3, asr #24
 8000b34:	d06a      	beq.n	8000c0c <__addsf3+0xec>
 8000b36:	ea4f 6212 	mov.w	r2, r2, lsr #24
 8000b3a:	ebd2 6313 	rsbs	r3, r2, r3, lsr #24
 8000b3e:	bfc1      	itttt	gt
 8000b40:	18d2      	addgt	r2, r2, r3
 8000b42:	4041      	eorgt	r1, r0
 8000b44:	4048      	eorgt	r0, r1
 8000b46:	4041      	eorgt	r1, r0
 8000b48:	bfb8      	it	lt
 8000b4a:	425b      	neglt	r3, r3
 8000b4c:	2b19      	cmp	r3, #25
 8000b4e:	bf88      	it	hi
 8000b50:	4770      	bxhi	lr
 8000b52:	f010 4f00 	tst.w	r0, #2147483648	; 0x80000000
 8000b56:	f440 0000 	orr.w	r0, r0, #8388608	; 0x800000
 8000b5a:	f020 407f 	bic.w	r0, r0, #4278190080	; 0xff000000
 8000b5e:	bf18      	it	ne
 8000b60:	4240      	negne	r0, r0
 8000b62:	f011 4f00 	tst.w	r1, #2147483648	; 0x80000000
 8000b66:	f441 0100 	orr.w	r1, r1, #8388608	; 0x800000
 8000b6a:	f021 417f 	bic.w	r1, r1, #4278190080	; 0xff000000
 8000b6e:	bf18      	it	ne
 8000b70:	4249      	negne	r1, r1
 8000b72:	ea92 0f03 	teq	r2, r3
 8000b76:	d03f      	beq.n	8000bf8 <__addsf3+0xd8>
 8000b78:	f1a2 0201 	sub.w	r2, r2, #1
 8000b7c:	fa41 fc03 	asr.w	ip, r1, r3
 8000b80:	eb10 000c 	adds.w	r0, r0, ip
 8000b84:	f1c3 0320 	rsb	r3, r3, #32
 8000b88:	fa01 f103 	lsl.w	r1, r1, r3
 8000b8c:	f000 4300 	and.w	r3, r0, #2147483648	; 0x80000000
 8000b90:	d502      	bpl.n	8000b98 <__addsf3+0x78>
 8000b92:	4249      	negs	r1, r1
 8000b94:	eb60 0040 	sbc.w	r0, r0, r0, lsl #1
 8000b98:	f5b0 0f00 	cmp.w	r0, #8388608	; 0x800000
 8000b9c:	d313      	bcc.n	8000bc6 <__addsf3+0xa6>
 8000b9e:	f1b0 7f80 	cmp.w	r0, #16777216	; 0x1000000
 8000ba2:	d306      	bcc.n	8000bb2 <__addsf3+0x92>
 8000ba4:	0840      	lsrs	r0, r0, #1
 8000ba6:	ea4f 0131 	mov.w	r1, r1, rrx
 8000baa:	f102 0201 	add.w	r2, r2, #1
 8000bae:	2afe      	cmp	r2, #254	; 0xfe
 8000bb0:	d251      	bcs.n	8000c56 <__addsf3+0x136>
 8000bb2:	f1b1 4f00 	cmp.w	r1, #2147483648	; 0x80000000
 8000bb6:	eb40 50c2 	adc.w	r0, r0, r2, lsl #23
 8000bba:	bf08      	it	eq
 8000bbc:	f020 0001 	biceq.w	r0, r0, #1
 8000bc0:	ea40 0003 	orr.w	r0, r0, r3
 8000bc4:	4770      	bx	lr
 8000bc6:	0049      	lsls	r1, r1, #1
 8000bc8:	eb40 0000 	adc.w	r0, r0, r0
 8000bcc:	3a01      	subs	r2, #1
 8000bce:	bf28      	it	cs
 8000bd0:	f5b0 0f00 	cmpcs.w	r0, #8388608	; 0x800000
 8000bd4:	d2ed      	bcs.n	8000bb2 <__addsf3+0x92>
 8000bd6:	fab0 fc80 	clz	ip, r0
 8000bda:	f1ac 0c08 	sub.w	ip, ip, #8
 8000bde:	ebb2 020c 	subs.w	r2, r2, ip
 8000be2:	fa00 f00c 	lsl.w	r0, r0, ip
 8000be6:	bfaa      	itet	ge
 8000be8:	eb00 50c2 	addge.w	r0, r0, r2, lsl #23
 8000bec:	4252      	neglt	r2, r2
 8000bee:	4318      	orrge	r0, r3
 8000bf0:	bfbc      	itt	lt
 8000bf2:	40d0      	lsrlt	r0, r2
 8000bf4:	4318      	orrlt	r0, r3
 8000bf6:	4770      	bx	lr
 8000bf8:	f092 0f00 	teq	r2, #0
 8000bfc:	f481 0100 	eor.w	r1, r1, #8388608	; 0x800000
 8000c00:	bf06      	itte	eq
 8000c02:	f480 0000 	eoreq.w	r0, r0, #8388608	; 0x800000
 8000c06:	3201      	addeq	r2, #1
 8000c08:	3b01      	subne	r3, #1
 8000c0a:	e7b5      	b.n	8000b78 <__addsf3+0x58>
 8000c0c:	ea4f 0341 	mov.w	r3, r1, lsl #1
 8000c10:	ea7f 6c22 	mvns.w	ip, r2, asr #24
 8000c14:	bf18      	it	ne
 8000c16:	ea7f 6c23 	mvnsne.w	ip, r3, asr #24
 8000c1a:	d021      	beq.n	8000c60 <__addsf3+0x140>
 8000c1c:	ea92 0f03 	teq	r2, r3
 8000c20:	d004      	beq.n	8000c2c <__addsf3+0x10c>
 8000c22:	f092 0f00 	teq	r2, #0
 8000c26:	bf08      	it	eq
 8000c28:	4608      	moveq	r0, r1
 8000c2a:	4770      	bx	lr
 8000c2c:	ea90 0f01 	teq	r0, r1
 8000c30:	bf1c      	itt	ne
 8000c32:	2000      	movne	r0, #0
 8000c34:	4770      	bxne	lr
 8000c36:	f012 4f7f 	tst.w	r2, #4278190080	; 0xff000000
 8000c3a:	d104      	bne.n	8000c46 <__addsf3+0x126>
 8000c3c:	0040      	lsls	r0, r0, #1
 8000c3e:	bf28      	it	cs
 8000c40:	f040 4000 	orrcs.w	r0, r0, #2147483648	; 0x80000000
 8000c44:	4770      	bx	lr
 8000c46:	f112 7200 	adds.w	r2, r2, #33554432	; 0x2000000
 8000c4a:	bf3c      	itt	cc
 8000c4c:	f500 0000 	addcc.w	r0, r0, #8388608	; 0x800000
 8000c50:	4770      	bxcc	lr
 8000c52:	f000 4300 	and.w	r3, r0, #2147483648	; 0x80000000
 8000c56:	f043 40fe 	orr.w	r0, r3, #2130706432	; 0x7f000000
 8000c5a:	f440 0000 	orr.w	r0, r0, #8388608	; 0x800000
 8000c5e:	4770      	bx	lr
 8000c60:	ea7f 6222 	mvns.w	r2, r2, asr #24
 8000c64:	bf16      	itet	ne
 8000c66:	4608      	movne	r0, r1
 8000c68:	ea7f 6323 	mvnseq.w	r3, r3, asr #24
 8000c6c:	4601      	movne	r1, r0
 8000c6e:	0242      	lsls	r2, r0, #9
 8000c70:	bf06      	itte	eq
 8000c72:	ea5f 2341 	movseq.w	r3, r1, lsl #9
 8000c76:	ea90 0f01 	teqeq	r0, r1
 8000c7a:	f440 0080 	orrne.w	r0, r0, #4194304	; 0x400000
 8000c7e:	4770      	bx	lr

08000c80 <__aeabi_ui2f>:
 8000c80:	f04f 0300 	mov.w	r3, #0
 8000c84:	e004      	b.n	8000c90 <__aeabi_i2f+0x8>
 8000c86:	bf00      	nop

08000c88 <__aeabi_i2f>:
 8000c88:	f010 4300 	ands.w	r3, r0, #2147483648	; 0x80000000
 8000c8c:	bf48      	it	mi
 8000c8e:	4240      	negmi	r0, r0
 8000c90:	ea5f 0c00 	movs.w	ip, r0
 8000c94:	bf08      	it	eq
 8000c96:	4770      	bxeq	lr
 8000c98:	f043 4396 	orr.w	r3, r3, #1258291200	; 0x4b000000
 8000c9c:	4601      	mov	r1, r0
 8000c9e:	f04f 0000 	mov.w	r0, #0
 8000ca2:	e01c      	b.n	8000cde <__aeabi_l2f+0x2a>

08000ca4 <__aeabi_ul2f>:
 8000ca4:	ea50 0201 	orrs.w	r2, r0, r1
 8000ca8:	bf08      	it	eq
 8000caa:	4770      	bxeq	lr
 8000cac:	f04f 0300 	mov.w	r3, #0
 8000cb0:	e00a      	b.n	8000cc8 <__aeabi_l2f+0x14>
 8000cb2:	bf00      	nop

08000cb4 <__aeabi_l2f>:
 8000cb4:	ea50 0201 	orrs.w	r2, r0, r1
 8000cb8:	bf08      	it	eq
 8000cba:	4770      	bxeq	lr
 8000cbc:	f011 4300 	ands.w	r3, r1, #2147483648	; 0x80000000
 8000cc0:	d502      	bpl.n	8000cc8 <__aeabi_l2f+0x14>
 8000cc2:	4240      	negs	r0, r0
 8000cc4:	eb61 0141 	sbc.w	r1, r1, r1, lsl #1
 8000cc8:	ea5f 0c01 	movs.w	ip, r1
 8000ccc:	bf02      	ittt	eq
 8000cce:	4684      	moveq	ip, r0
 8000cd0:	4601      	moveq	r1, r0
 8000cd2:	2000      	moveq	r0, #0
 8000cd4:	f043 43b6 	orr.w	r3, r3, #1526726656	; 0x5b000000
 8000cd8:	bf08      	it	eq
 8000cda:	f1a3 5380 	subeq.w	r3, r3, #268435456	; 0x10000000
 8000cde:	f5a3 0300 	sub.w	r3, r3, #8388608	; 0x800000
 8000ce2:	fabc f28c 	clz	r2, ip
 8000ce6:	3a08      	subs	r2, #8
 8000ce8:	eba3 53c2 	sub.w	r3, r3, r2, lsl #23
 8000cec:	db10      	blt.n	8000d10 <__aeabi_l2f+0x5c>
 8000cee:	fa01 fc02 	lsl.w	ip, r1, r2
 8000cf2:	4463      	add	r3, ip
 8000cf4:	fa00 fc02 	lsl.w	ip, r0, r2
 8000cf8:	f1c2 0220 	rsb	r2, r2, #32
 8000cfc:	f1bc 4f00 	cmp.w	ip, #2147483648	; 0x80000000
 8000d00:	fa20 f202 	lsr.w	r2, r0, r2
 8000d04:	eb43 0002 	adc.w	r0, r3, r2
 8000d08:	bf08      	it	eq
 8000d0a:	f020 0001 	biceq.w	r0, r0, #1
 8000d0e:	4770      	bx	lr
 8000d10:	f102 0220 	add.w	r2, r2, #32
 8000d14:	fa01 fc02 	lsl.w	ip, r1, r2
 8000d18:	f1c2 0220 	rsb	r2, r2, #32
 8000d1c:	ea50 004c 	orrs.w	r0, r0, ip, lsl #1
 8000d20:	fa21 f202 	lsr.w	r2, r1, r2
 8000d24:	eb43 0002 	adc.w	r0, r3, r2
 8000d28:	bf08      	it	eq
 8000d2a:	ea20 70dc 	biceq.w	r0, r0, ip, lsr #31
 8000d2e:	4770      	bx	lr

08000d30 <__gesf2>:
 8000d30:	f04f 3cff 	mov.w	ip, #4294967295
 8000d34:	e006      	b.n	8000d44 <__cmpsf2+0x4>
 8000d36:	bf00      	nop

08000d38 <__lesf2>:
 8000d38:	f04f 0c01 	mov.w	ip, #1
 8000d3c:	e002      	b.n	8000d44 <__cmpsf2+0x4>
 8000d3e:	bf00      	nop

08000d40 <__cmpsf2>:
 8000d40:	f04f 0c01 	mov.w	ip, #1
 8000d44:	f84d cd04 	str.w	ip, [sp, #-4]!
 8000d48:	ea4f 0240 	mov.w	r2, r0, lsl #1
 8000d4c:	ea4f 0341 	mov.w	r3, r1, lsl #1
 8000d50:	ea7f 6c22 	mvns.w	ip, r2, asr #24
 8000d54:	bf18      	it	ne
 8000d56:	ea7f 6c23 	mvnsne.w	ip, r3, asr #24
 8000d5a:	d011      	beq.n	8000d80 <__cmpsf2+0x40>
 8000d5c:	b001      	add	sp, #4
 8000d5e:	ea52 0c53 	orrs.w	ip, r2, r3, lsr #1
 8000d62:	bf18      	it	ne
 8000d64:	ea90 0f01 	teqne	r0, r1
 8000d68:	bf58      	it	pl
 8000d6a:	ebb2 0003 	subspl.w	r0, r2, r3
 8000d6e:	bf88      	it	hi
 8000d70:	17c8      	asrhi	r0, r1, #31
 8000d72:	bf38      	it	cc
 8000d74:	ea6f 70e1 	mvncc.w	r0, r1, asr #31
 8000d78:	bf18      	it	ne
 8000d7a:	f040 0001 	orrne.w	r0, r0, #1
 8000d7e:	4770      	bx	lr
 8000d80:	ea7f 6c22 	mvns.w	ip, r2, asr #24
 8000d84:	d102      	bne.n	8000d8c <__cmpsf2+0x4c>
 8000d86:	ea5f 2c40 	movs.w	ip, r0, lsl #9
 8000d8a:	d105      	bne.n	8000d98 <__cmpsf2+0x58>
 8000d8c:	ea7f 6c23 	mvns.w	ip, r3, asr #24
 8000d90:	d1e4      	bne.n	8000d5c <__cmpsf2+0x1c>
 8000d92:	ea5f 2c41 	movs.w	ip, r1, lsl #9
 8000d96:	d0e1      	beq.n	8000d5c <__cmpsf2+0x1c>
 8000d98:	f85d 0b04 	ldr.w	r0, [sp], #4
 8000d9c:	4770      	bx	lr
 8000d9e:	bf00      	nop

08000da0 <__aeabi_cfrcmple>:
 8000da0:	4684      	mov	ip, r0
 8000da2:	4608      	mov	r0, r1
 8000da4:	4661      	mov	r1, ip
 8000da6:	e7ff      	b.n	8000da8 <__aeabi_cfcmpeq>

08000da8 <__aeabi_cfcmpeq>:
 8000da8:	b50f      	push	{r0, r1, r2, r3, lr}
 8000daa:	f7ff ffc9 	bl	8000d40 <__cmpsf2>
 8000dae:	2800      	cmp	r0, #0
 8000db0:	bf48      	it	mi
 8000db2:	f110 0f00 	cmnmi.w	r0, #0
 8000db6:	bd0f      	pop	{r0, r1, r2, r3, pc}

08000db8 <__aeabi_fcmpeq>:
 8000db8:	f84d ed08 	str.w	lr, [sp, #-8]!
 8000dbc:	f7ff fff4 	bl	8000da8 <__aeabi_cfcmpeq>
 8000dc0:	bf0c      	ite	eq
 8000dc2:	2001      	moveq	r0, #1
 8000dc4:	2000      	movne	r0, #0
 8000dc6:	f85d fb08 	ldr.w	pc, [sp], #8
 8000dca:	bf00      	nop

08000dcc <__aeabi_fcmplt>:
 8000dcc:	f84d ed08 	str.w	lr, [sp, #-8]!
 8000dd0:	f7ff ffea 	bl	8000da8 <__aeabi_cfcmpeq>
 8000dd4:	bf34      	ite	cc
 8000dd6:	2001      	movcc	r0, #1
 8000dd8:	2000      	movcs	r0, #0
 8000dda:	f85d fb08 	ldr.w	pc, [sp], #8
 8000dde:	bf00      	nop

08000de0 <__aeabi_fcmple>:
 8000de0:	f84d ed08 	str.w	lr, [sp, #-8]!
 8000de4:	f7ff ffe0 	bl	8000da8 <__aeabi_cfcmpeq>
 8000de8:	bf94      	ite	ls
 8000dea:	2001      	movls	r0, #1
 8000dec:	2000      	movhi	r0, #0
 8000dee:	f85d fb08 	ldr.w	pc, [sp], #8
 8000df2:	bf00      	nop

08000df4 <__aeabi_fcmpge>:
 8000df4:	f84d ed08 	str.w	lr, [sp, #-8]!
 8000df8:	f7ff ffd2 	bl	8000da0 <__aeabi_cfrcmple>
 8000dfc:	bf94      	ite	ls
 8000dfe:	2001      	movls	r0, #1
 8000e00:	2000      	movhi	r0, #0
 8000e02:	f85d fb08 	ldr.w	pc, [sp], #8
 8000e06:	bf00      	nop

08000e08 <__aeabi_fcmpgt>:
 8000e08:	f84d ed08 	str.w	lr, [sp, #-8]!
 8000e0c:	f7ff ffc8 	bl	8000da0 <__aeabi_cfrcmple>
 8000e10:	bf34      	ite	cc
 8000e12:	2001      	movcc	r0, #1
 8000e14:	2000      	movcs	r0, #0
 8000e16:	f85d fb08 	ldr.w	pc, [sp], #8
 8000e1a:	bf00      	nop

08000e1c <__aeabi_f2iz>:
 8000e1c:	ea4f 0240 	mov.w	r2, r0, lsl #1
 8000e20:	f1b2 4ffe 	cmp.w	r2, #2130706432	; 0x7f000000
 8000e24:	d30f      	bcc.n	8000e46 <__aeabi_f2iz+0x2a>
 8000e26:	f04f 039e 	mov.w	r3, #158	; 0x9e
 8000e2a:	ebb3 6212 	subs.w	r2, r3, r2, lsr #24
 8000e2e:	d90d      	bls.n	8000e4c <__aeabi_f2iz+0x30>
 8000e30:	ea4f 2300 	mov.w	r3, r0, lsl #8
 8000e34:	f043 4300 	orr.w	r3, r3, #2147483648	; 0x80000000
 8000e38:	f010 4f00 	tst.w	r0, #2147483648	; 0x80000000
 8000e3c:	fa23 f002 	lsr.w	r0, r3, r2
 8000e40:	bf18      	it	ne
 8000e42:	4240      	negne	r0, r0
 8000e44:	4770      	bx	lr
 8000e46:	f04f 0000 	mov.w	r0, #0
 8000e4a:	4770      	bx	lr
 8000e4c:	f112 0f61 	cmn.w	r2, #97	; 0x61
 8000e50:	d101      	bne.n	8000e56 <__aeabi_f2iz+0x3a>
 8000e52:	0242      	lsls	r2, r0, #9
 8000e54:	d105      	bne.n	8000e62 <__aeabi_f2iz+0x46>
 8000e56:	f010 4000 	ands.w	r0, r0, #2147483648	; 0x80000000
 8000e5a:	bf08      	it	eq
 8000e5c:	f06f 4000 	mvneq.w	r0, #2147483648	; 0x80000000
 8000e60:	4770      	bx	lr
 8000e62:	f04f 0000 	mov.w	r0, #0
 8000e66:	4770      	bx	lr

08000e68 <__aeabi_f2uiz>:
 8000e68:	0042      	lsls	r2, r0, #1
 8000e6a:	d20e      	bcs.n	8000e8a <__aeabi_f2uiz+0x22>
 8000e6c:	f1b2 4ffe 	cmp.w	r2, #2130706432	; 0x7f000000
 8000e70:	d30b      	bcc.n	8000e8a <__aeabi_f2uiz+0x22>
 8000e72:	f04f 039e 	mov.w	r3, #158	; 0x9e
 8000e76:	ebb3 6212 	subs.w	r2, r3, r2, lsr #24
 8000e7a:	d409      	bmi.n	8000e90 <__aeabi_f2uiz+0x28>
 8000e7c:	ea4f 2300 	mov.w	r3, r0, lsl #8
 8000e80:	f043 4300 	orr.w	r3, r3, #2147483648	; 0x80000000
 8000e84:	fa23 f002 	lsr.w	r0, r3, r2
 8000e88:	4770      	bx	lr
 8000e8a:	f04f 0000 	mov.w	r0, #0
 8000e8e:	4770      	bx	lr
 8000e90:	f112 0f61 	cmn.w	r2, #97	; 0x61
 8000e94:	d101      	bne.n	8000e9a <__aeabi_f2uiz+0x32>
 8000e96:	0242      	lsls	r2, r0, #9
 8000e98:	d102      	bne.n	8000ea0 <__aeabi_f2uiz+0x38>
 8000e9a:	f04f 30ff 	mov.w	r0, #4294967295
 8000e9e:	4770      	bx	lr
 8000ea0:	f04f 0000 	mov.w	r0, #0
 8000ea4:	4770      	bx	lr
 8000ea6:	bf00      	nop

08000ea8 <clock_init>:
** Returned value:	Current Source of the system Clock
**
*****************************************************************************/

void clock_init(void)
{
 8000ea8:	b580      	push	{r7, lr}
 8000eaa:	af00      	add	r7, sp, #0
	ahb_clk_set(p->ahb_prescalar);
 8000eac:	4b17      	ldr	r3, [pc, #92]	; (8000f0c <clock_init+0x64>)
 8000eae:	681b      	ldr	r3, [r3, #0]
 8000eb0:	78db      	ldrb	r3, [r3, #3]
 8000eb2:	4618      	mov	r0, r3
 8000eb4:	f000 f8c0 	bl	8001038 <ahb_clk_set>

	apb1_clk_set(p->apb1_prescalar);
 8000eb8:	4b14      	ldr	r3, [pc, #80]	; (8000f0c <clock_init+0x64>)
 8000eba:	681b      	ldr	r3, [r3, #0]
 8000ebc:	791b      	ldrb	r3, [r3, #4]
 8000ebe:	4618      	mov	r0, r3
 8000ec0:	f000 f8d4 	bl	800106c <apb1_clk_set>

	apb2_clk_set(p->apb2_prescalar);
 8000ec4:	4b11      	ldr	r3, [pc, #68]	; (8000f0c <clock_init+0x64>)
 8000ec6:	681b      	ldr	r3, [r3, #0]
 8000ec8:	795b      	ldrb	r3, [r3, #5]
 8000eca:	4618      	mov	r0, r3
 8000ecc:	f000 f8e8 	bl	80010a0 <apb2_clk_set>

	pll_clk_config(p->pll_clock_source,p->pll_input_clock_multiplier);
 8000ed0:	4b0e      	ldr	r3, [pc, #56]	; (8000f0c <clock_init+0x64>)
 8000ed2:	681b      	ldr	r3, [r3, #0]
 8000ed4:	789a      	ldrb	r2, [r3, #2]
 8000ed6:	4b0d      	ldr	r3, [pc, #52]	; (8000f0c <clock_init+0x64>)
 8000ed8:	681b      	ldr	r3, [r3, #0]
 8000eda:	785b      	ldrb	r3, [r3, #1]
 8000edc:	4619      	mov	r1, r3
 8000ede:	4610      	mov	r0, r2
 8000ee0:	f000 f880 	bl	8000fe4 <pll_clk_config>

	system_clock_set(p->system_clock_source);
 8000ee4:	4b09      	ldr	r3, [pc, #36]	; (8000f0c <clock_init+0x64>)
 8000ee6:	681b      	ldr	r3, [r3, #0]
 8000ee8:	781b      	ldrb	r3, [r3, #0]
 8000eea:	4618      	mov	r0, r3
 8000eec:	f000 f810 	bl	8000f10 <system_clock_set>

	ahb_peripheral_clock_en(AHB_PERIPHERAL_CLOCK_EN);
 8000ef0:	2001      	movs	r0, #1
 8000ef2:	f000 f913 	bl	800111c <ahb_peripheral_clock_en>

	apb2_peripheral_clock_en(APB2_PERIPHERAL_CLOCK_EN);
 8000ef6:	f640 001d 	movw	r0, #2077	; 0x81d
 8000efa:	f000 f8eb 	bl	80010d4 <apb2_peripheral_clock_en>

	apb1_peripheral_clock_en(APB1_PERIPHERAL_CLOCK_EN);
 8000efe:	f44f 0084 	mov.w	r0, #4325376	; 0x420000
 8000f02:	f000 f8f9 	bl	80010f8 <apb1_peripheral_clock_en>

}
 8000f06:	bf00      	nop
 8000f08:	bd80      	pop	{r7, pc}
 8000f0a:	bf00      	nop
 8000f0c:	20000008 	.word	0x20000008

08000f10 <system_clock_set>:
** Returned value:	Current Source of the system Clock
**
*****************************************************************************/

uint8_t system_clock_set(clock_source_e source)
{
 8000f10:	b480      	push	{r7}
 8000f12:	b085      	sub	sp, #20
 8000f14:	af00      	add	r7, sp, #0
 8000f16:	4603      	mov	r3, r0
 8000f18:	71fb      	strb	r3, [r7, #7]
	uint8_t temp = HSI;
 8000f1a:	2300      	movs	r3, #0
 8000f1c:	73fb      	strb	r3, [r7, #15]
	if (source == HSE)
 8000f1e:	79fb      	ldrb	r3, [r7, #7]
 8000f20:	2b01      	cmp	r3, #1
 8000f22:	d11f      	bne.n	8000f64 <system_clock_set+0x54>
	{
		RCC->CR |= HSE_ON;
 8000f24:	4b2e      	ldr	r3, [pc, #184]	; (8000fe0 <system_clock_set+0xd0>)
 8000f26:	681b      	ldr	r3, [r3, #0]
 8000f28:	4a2d      	ldr	r2, [pc, #180]	; (8000fe0 <system_clock_set+0xd0>)
 8000f2a:	f443 3380 	orr.w	r3, r3, #65536	; 0x10000
 8000f2e:	6013      	str	r3, [r2, #0]
		while (!IS_HSE_READY())
 8000f30:	bf00      	nop
 8000f32:	4b2b      	ldr	r3, [pc, #172]	; (8000fe0 <system_clock_set+0xd0>)
 8000f34:	681b      	ldr	r3, [r3, #0]
 8000f36:	f403 3300 	and.w	r3, r3, #131072	; 0x20000
 8000f3a:	2b00      	cmp	r3, #0
 8000f3c:	d0f9      	beq.n	8000f32 <system_clock_set+0x22>
		{
			;
		}
		RCC->CFGR &= ~(3 << 0);
 8000f3e:	4b28      	ldr	r3, [pc, #160]	; (8000fe0 <system_clock_set+0xd0>)
 8000f40:	685b      	ldr	r3, [r3, #4]
 8000f42:	4a27      	ldr	r2, [pc, #156]	; (8000fe0 <system_clock_set+0xd0>)
 8000f44:	f023 0303 	bic.w	r3, r3, #3
 8000f48:	6053      	str	r3, [r2, #4]
		RCC->CFGR |= HSE;
 8000f4a:	4b25      	ldr	r3, [pc, #148]	; (8000fe0 <system_clock_set+0xd0>)
 8000f4c:	685b      	ldr	r3, [r3, #4]
 8000f4e:	4a24      	ldr	r2, [pc, #144]	; (8000fe0 <system_clock_set+0xd0>)
 8000f50:	f043 0301 	orr.w	r3, r3, #1
 8000f54:	6053      	str	r3, [r2, #4]
		RCC->CR &= ~(1 << 0);
 8000f56:	4b22      	ldr	r3, [pc, #136]	; (8000fe0 <system_clock_set+0xd0>)
 8000f58:	681b      	ldr	r3, [r3, #0]
 8000f5a:	4a21      	ldr	r2, [pc, #132]	; (8000fe0 <system_clock_set+0xd0>)
 8000f5c:	f023 0301 	bic.w	r3, r3, #1
 8000f60:	6013      	str	r3, [r2, #0]
 8000f62:	e037      	b.n	8000fd4 <system_clock_set+0xc4>
	}
	else if (source == HSI)
 8000f64:	79fb      	ldrb	r3, [r7, #7]
 8000f66:	2b00      	cmp	r3, #0
 8000f68:	d117      	bne.n	8000f9a <system_clock_set+0x8a>
	{
		RCC->CR |= HSI_ON;
 8000f6a:	4b1d      	ldr	r3, [pc, #116]	; (8000fe0 <system_clock_set+0xd0>)
 8000f6c:	681b      	ldr	r3, [r3, #0]
 8000f6e:	4a1c      	ldr	r2, [pc, #112]	; (8000fe0 <system_clock_set+0xd0>)
 8000f70:	f043 0301 	orr.w	r3, r3, #1
 8000f74:	6013      	str	r3, [r2, #0]
		while (!IS_HSI_READY())
 8000f76:	bf00      	nop
 8000f78:	4b19      	ldr	r3, [pc, #100]	; (8000fe0 <system_clock_set+0xd0>)
 8000f7a:	681b      	ldr	r3, [r3, #0]
 8000f7c:	f003 0302 	and.w	r3, r3, #2
 8000f80:	2b00      	cmp	r3, #0
 8000f82:	d0f9      	beq.n	8000f78 <system_clock_set+0x68>
		{
			;
		}
		RCC->CFGR &= ~(3 << 0);
 8000f84:	4b16      	ldr	r3, [pc, #88]	; (8000fe0 <system_clock_set+0xd0>)
 8000f86:	685b      	ldr	r3, [r3, #4]
 8000f88:	4a15      	ldr	r2, [pc, #84]	; (8000fe0 <system_clock_set+0xd0>)
 8000f8a:	f023 0303 	bic.w	r3, r3, #3
 8000f8e:	6053      	str	r3, [r2, #4]
		RCC->CFGR |= HSI;
 8000f90:	4b13      	ldr	r3, [pc, #76]	; (8000fe0 <system_clock_set+0xd0>)
 8000f92:	4a13      	ldr	r2, [pc, #76]	; (8000fe0 <system_clock_set+0xd0>)
 8000f94:	685b      	ldr	r3, [r3, #4]
 8000f96:	6053      	str	r3, [r2, #4]
 8000f98:	e01c      	b.n	8000fd4 <system_clock_set+0xc4>
	}
	else if (source == PLL)
 8000f9a:	79fb      	ldrb	r3, [r7, #7]
 8000f9c:	2b02      	cmp	r3, #2
 8000f9e:	d119      	bne.n	8000fd4 <system_clock_set+0xc4>
	{
		RCC->CR |= PLL_ON;
 8000fa0:	4b0f      	ldr	r3, [pc, #60]	; (8000fe0 <system_clock_set+0xd0>)
 8000fa2:	681b      	ldr	r3, [r3, #0]
 8000fa4:	4a0e      	ldr	r2, [pc, #56]	; (8000fe0 <system_clock_set+0xd0>)
 8000fa6:	f043 7380 	orr.w	r3, r3, #16777216	; 0x1000000
 8000faa:	6013      	str	r3, [r2, #0]
		while (!IS_PLL_READY())
 8000fac:	bf00      	nop
 8000fae:	4b0c      	ldr	r3, [pc, #48]	; (8000fe0 <system_clock_set+0xd0>)
 8000fb0:	681b      	ldr	r3, [r3, #0]
 8000fb2:	f003 7300 	and.w	r3, r3, #33554432	; 0x2000000
 8000fb6:	2b00      	cmp	r3, #0
 8000fb8:	d0f9      	beq.n	8000fae <system_clock_set+0x9e>
		{
			;
		}
		//RCC->CFGR &= ~(3 << 0);
		RCC->CFGR |= PLL;
 8000fba:	4b09      	ldr	r3, [pc, #36]	; (8000fe0 <system_clock_set+0xd0>)
 8000fbc:	685b      	ldr	r3, [r3, #4]
 8000fbe:	4a08      	ldr	r2, [pc, #32]	; (8000fe0 <system_clock_set+0xd0>)
 8000fc0:	f043 0302 	orr.w	r3, r3, #2
 8000fc4:	6053      	str	r3, [r2, #4]
		while ((RCC->CFGR & (3 << 2)) != 8);
 8000fc6:	bf00      	nop
 8000fc8:	4b05      	ldr	r3, [pc, #20]	; (8000fe0 <system_clock_set+0xd0>)
 8000fca:	685b      	ldr	r3, [r3, #4]
 8000fcc:	f003 030c 	and.w	r3, r3, #12
 8000fd0:	2b08      	cmp	r3, #8
 8000fd2:	d1f9      	bne.n	8000fc8 <system_clock_set+0xb8>
		//RCC->CR &= ~(1 << 0);

	}
	return temp;
 8000fd4:	7bfb      	ldrb	r3, [r7, #15]
}
 8000fd6:	4618      	mov	r0, r3
 8000fd8:	3714      	adds	r7, #20
 8000fda:	46bd      	mov	sp, r7
 8000fdc:	bc80      	pop	{r7}
 8000fde:	4770      	bx	lr
 8000fe0:	40021000 	.word	0x40021000

08000fe4 <pll_clk_config>:
**
** Returned value:		status of the function (healthy or error)
**
*****************************************************************************/
uint8_t pll_clk_config(pll_entry_clock_source_e source,pll_input_multiplier_e multiplication_factor)
{
 8000fe4:	b480      	push	{r7}
 8000fe6:	b083      	sub	sp, #12
 8000fe8:	af00      	add	r7, sp, #0
 8000fea:	4603      	mov	r3, r0
 8000fec:	460a      	mov	r2, r1
 8000fee:	71fb      	strb	r3, [r7, #7]
 8000ff0:	4613      	mov	r3, r2
 8000ff2:	71bb      	strb	r3, [r7, #6]
	 RCC->CFGR &= ~(0xF << 18);
 8000ff4:	4b0f      	ldr	r3, [pc, #60]	; (8001034 <pll_clk_config+0x50>)
 8000ff6:	685b      	ldr	r3, [r3, #4]
 8000ff8:	4a0e      	ldr	r2, [pc, #56]	; (8001034 <pll_clk_config+0x50>)
 8000ffa:	f423 1370 	bic.w	r3, r3, #3932160	; 0x3c0000
 8000ffe:	6053      	str	r3, [r2, #4]
	 RCC->CFGR |= (multiplication_factor << 18);
 8001000:	4b0c      	ldr	r3, [pc, #48]	; (8001034 <pll_clk_config+0x50>)
 8001002:	685b      	ldr	r3, [r3, #4]
 8001004:	79ba      	ldrb	r2, [r7, #6]
 8001006:	0492      	lsls	r2, r2, #18
 8001008:	4611      	mov	r1, r2
 800100a:	4a0a      	ldr	r2, [pc, #40]	; (8001034 <pll_clk_config+0x50>)
 800100c:	430b      	orrs	r3, r1
 800100e:	6053      	str	r3, [r2, #4]
	 RCC->CFGR &= ~(1 << 16);
 8001010:	4b08      	ldr	r3, [pc, #32]	; (8001034 <pll_clk_config+0x50>)
 8001012:	685b      	ldr	r3, [r3, #4]
 8001014:	4a07      	ldr	r2, [pc, #28]	; (8001034 <pll_clk_config+0x50>)
 8001016:	f423 3380 	bic.w	r3, r3, #65536	; 0x10000
 800101a:	6053      	str	r3, [r2, #4]
	 RCC->CFGR |= source;
 800101c:	4b05      	ldr	r3, [pc, #20]	; (8001034 <pll_clk_config+0x50>)
 800101e:	685a      	ldr	r2, [r3, #4]
 8001020:	79fb      	ldrb	r3, [r7, #7]
 8001022:	4904      	ldr	r1, [pc, #16]	; (8001034 <pll_clk_config+0x50>)
 8001024:	4313      	orrs	r3, r2
 8001026:	604b      	str	r3, [r1, #4]
     return 1;
 8001028:	2301      	movs	r3, #1
}
 800102a:	4618      	mov	r0, r3
 800102c:	370c      	adds	r7, #12
 800102e:	46bd      	mov	sp, r7
 8001030:	bc80      	pop	{r7}
 8001032:	4770      	bx	lr
 8001034:	40021000 	.word	0x40021000

08001038 <ahb_clk_set>:
**
*****************************************************************************/


void ahb_clk_set(ahb_prescalar_option_e factor)
{
 8001038:	b480      	push	{r7}
 800103a:	b083      	sub	sp, #12
 800103c:	af00      	add	r7, sp, #0
 800103e:	4603      	mov	r3, r0
 8001040:	71fb      	strb	r3, [r7, #7]
	RCC->CFGR &= ~(0xF << AHB_CLOCK_PRESCALAR_OFFSET);
 8001042:	4b09      	ldr	r3, [pc, #36]	; (8001068 <ahb_clk_set+0x30>)
 8001044:	685b      	ldr	r3, [r3, #4]
 8001046:	4a08      	ldr	r2, [pc, #32]	; (8001068 <ahb_clk_set+0x30>)
 8001048:	f023 03f0 	bic.w	r3, r3, #240	; 0xf0
 800104c:	6053      	str	r3, [r2, #4]
	RCC->CFGR |= (factor << AHB_CLOCK_PRESCALAR_OFFSET);
 800104e:	4b06      	ldr	r3, [pc, #24]	; (8001068 <ahb_clk_set+0x30>)
 8001050:	685b      	ldr	r3, [r3, #4]
 8001052:	79fa      	ldrb	r2, [r7, #7]
 8001054:	0112      	lsls	r2, r2, #4
 8001056:	4611      	mov	r1, r2
 8001058:	4a03      	ldr	r2, [pc, #12]	; (8001068 <ahb_clk_set+0x30>)
 800105a:	430b      	orrs	r3, r1
 800105c:	6053      	str	r3, [r2, #4]
}
 800105e:	bf00      	nop
 8001060:	370c      	adds	r7, #12
 8001062:	46bd      	mov	sp, r7
 8001064:	bc80      	pop	{r7}
 8001066:	4770      	bx	lr
 8001068:	40021000 	.word	0x40021000

0800106c <apb1_clk_set>:
**
** Returned value:		void
**
*****************************************************************************/
void apb1_clk_set(apbx_prescalar_options_e factor)
{
 800106c:	b480      	push	{r7}
 800106e:	b083      	sub	sp, #12
 8001070:	af00      	add	r7, sp, #0
 8001072:	4603      	mov	r3, r0
 8001074:	71fb      	strb	r3, [r7, #7]
	RCC->CFGR &= ~(0x7 << APB1_CLOCK_PRESCALAR_OFFSET);
 8001076:	4b09      	ldr	r3, [pc, #36]	; (800109c <apb1_clk_set+0x30>)
 8001078:	685b      	ldr	r3, [r3, #4]
 800107a:	4a08      	ldr	r2, [pc, #32]	; (800109c <apb1_clk_set+0x30>)
 800107c:	f423 63e0 	bic.w	r3, r3, #1792	; 0x700
 8001080:	6053      	str	r3, [r2, #4]
	RCC->CFGR |= (factor << APB1_CLOCK_PRESCALAR_OFFSET);
 8001082:	4b06      	ldr	r3, [pc, #24]	; (800109c <apb1_clk_set+0x30>)
 8001084:	685b      	ldr	r3, [r3, #4]
 8001086:	79fa      	ldrb	r2, [r7, #7]
 8001088:	0212      	lsls	r2, r2, #8
 800108a:	4611      	mov	r1, r2
 800108c:	4a03      	ldr	r2, [pc, #12]	; (800109c <apb1_clk_set+0x30>)
 800108e:	430b      	orrs	r3, r1
 8001090:	6053      	str	r3, [r2, #4]
}
 8001092:	bf00      	nop
 8001094:	370c      	adds	r7, #12
 8001096:	46bd      	mov	sp, r7
 8001098:	bc80      	pop	{r7}
 800109a:	4770      	bx	lr
 800109c:	40021000 	.word	0x40021000

080010a0 <apb2_clk_set>:
**
** Returned value:		void
**
*****************************************************************************/
void apb2_clk_set(apbx_prescalar_options_e factor)
{
 80010a0:	b480      	push	{r7}
 80010a2:	b083      	sub	sp, #12
 80010a4:	af00      	add	r7, sp, #0
 80010a6:	4603      	mov	r3, r0
 80010a8:	71fb      	strb	r3, [r7, #7]
	RCC->CFGR &= ~(0xF << APB2_CLOCK_PRESCALAR_OFFSET);
 80010aa:	4b09      	ldr	r3, [pc, #36]	; (80010d0 <apb2_clk_set+0x30>)
 80010ac:	685b      	ldr	r3, [r3, #4]
 80010ae:	4a08      	ldr	r2, [pc, #32]	; (80010d0 <apb2_clk_set+0x30>)
 80010b0:	f423 43f0 	bic.w	r3, r3, #30720	; 0x7800
 80010b4:	6053      	str	r3, [r2, #4]
	RCC->CFGR |= (factor << APB2_CLOCK_PRESCALAR_OFFSET);
 80010b6:	4b06      	ldr	r3, [pc, #24]	; (80010d0 <apb2_clk_set+0x30>)
 80010b8:	685b      	ldr	r3, [r3, #4]
 80010ba:	79fa      	ldrb	r2, [r7, #7]
 80010bc:	02d2      	lsls	r2, r2, #11
 80010be:	4611      	mov	r1, r2
 80010c0:	4a03      	ldr	r2, [pc, #12]	; (80010d0 <apb2_clk_set+0x30>)
 80010c2:	430b      	orrs	r3, r1
 80010c4:	6053      	str	r3, [r2, #4]
}
 80010c6:	bf00      	nop
 80010c8:	370c      	adds	r7, #12
 80010ca:	46bd      	mov	sp, r7
 80010cc:	bc80      	pop	{r7}
 80010ce:	4770      	bx	lr
 80010d0:	40021000 	.word	0x40021000

080010d4 <apb2_peripheral_clock_en>:
**
** Returned value:		void
**
*****************************************************************************/
void apb2_peripheral_clock_en(uint32_t clock_en_parameter)
{
 80010d4:	b480      	push	{r7}
 80010d6:	b083      	sub	sp, #12
 80010d8:	af00      	add	r7, sp, #0
 80010da:	6078      	str	r0, [r7, #4]
	RCC->APB2ENR |= clock_en_parameter;
 80010dc:	4b05      	ldr	r3, [pc, #20]	; (80010f4 <apb2_peripheral_clock_en+0x20>)
 80010de:	699a      	ldr	r2, [r3, #24]
 80010e0:	4904      	ldr	r1, [pc, #16]	; (80010f4 <apb2_peripheral_clock_en+0x20>)
 80010e2:	687b      	ldr	r3, [r7, #4]
 80010e4:	4313      	orrs	r3, r2
 80010e6:	618b      	str	r3, [r1, #24]
}
 80010e8:	bf00      	nop
 80010ea:	370c      	adds	r7, #12
 80010ec:	46bd      	mov	sp, r7
 80010ee:	bc80      	pop	{r7}
 80010f0:	4770      	bx	lr
 80010f2:	bf00      	nop
 80010f4:	40021000 	.word	0x40021000

080010f8 <apb1_peripheral_clock_en>:
**
** Returned value:		void
**
*****************************************************************************/
void apb1_peripheral_clock_en(uint32_t clock_en_parameter)
{
 80010f8:	b480      	push	{r7}
 80010fa:	b083      	sub	sp, #12
 80010fc:	af00      	add	r7, sp, #0
 80010fe:	6078      	str	r0, [r7, #4]
	RCC->APB1ENR |= clock_en_parameter;
 8001100:	4b05      	ldr	r3, [pc, #20]	; (8001118 <apb1_peripheral_clock_en+0x20>)
 8001102:	69da      	ldr	r2, [r3, #28]
 8001104:	4904      	ldr	r1, [pc, #16]	; (8001118 <apb1_peripheral_clock_en+0x20>)
 8001106:	687b      	ldr	r3, [r7, #4]
 8001108:	4313      	orrs	r3, r2
 800110a:	61cb      	str	r3, [r1, #28]
}
 800110c:	bf00      	nop
 800110e:	370c      	adds	r7, #12
 8001110:	46bd      	mov	sp, r7
 8001112:	bc80      	pop	{r7}
 8001114:	4770      	bx	lr
 8001116:	bf00      	nop
 8001118:	40021000 	.word	0x40021000

0800111c <ahb_peripheral_clock_en>:


void ahb_peripheral_clock_en(uint32_t clock_en_parameter)
{
 800111c:	b480      	push	{r7}
 800111e:	b083      	sub	sp, #12
 8001120:	af00      	add	r7, sp, #0
 8001122:	6078      	str	r0, [r7, #4]
	RCC->AHBENR |= clock_en_parameter;
 8001124:	4b05      	ldr	r3, [pc, #20]	; (800113c <ahb_peripheral_clock_en+0x20>)
 8001126:	695a      	ldr	r2, [r3, #20]
 8001128:	4904      	ldr	r1, [pc, #16]	; (800113c <ahb_peripheral_clock_en+0x20>)
 800112a:	687b      	ldr	r3, [r7, #4]
 800112c:	4313      	orrs	r3, r2
 800112e:	614b      	str	r3, [r1, #20]
}
 8001130:	bf00      	nop
 8001132:	370c      	adds	r7, #12
 8001134:	46bd      	mov	sp, r7
 8001136:	bc80      	pop	{r7}
 8001138:	4770      	bx	lr
 800113a:	bf00      	nop
 800113c:	40021000 	.word	0x40021000

08001140 <apb_get_clock>:
**
** Returned value:		Clock Frequency
**
*****************************************************************************/
uint32_t apb_get_clock(uint8_t apb)
{
 8001140:	b580      	push	{r7, lr}
 8001142:	b088      	sub	sp, #32
 8001144:	af00      	add	r7, sp, #0
 8001146:	4603      	mov	r3, r0
 8001148:	71fb      	strb	r3, [r7, #7]
	uint8_t clock_source;
	uint32_t sysclk, temp, ahbp, apbp;

	clock_source = ((RCC->CFGR >> 2) & 0x03);
 800114a:	4b36      	ldr	r3, [pc, #216]	; (8001224 <apb_get_clock+0xe4>)
 800114c:	685b      	ldr	r3, [r3, #4]
 800114e:	089b      	lsrs	r3, r3, #2
 8001150:	b2db      	uxtb	r3, r3
 8001152:	f003 0303 	and.w	r3, r3, #3
 8001156:	74fb      	strb	r3, [r7, #19]
	if (clock_source == SYSCLK_SOURCE_HSI)
 8001158:	7cfb      	ldrb	r3, [r7, #19]
 800115a:	2b00      	cmp	r3, #0
 800115c:	d102      	bne.n	8001164 <apb_get_clock+0x24>
	{
		sysclk = 8000000;
 800115e:	4b32      	ldr	r3, [pc, #200]	; (8001228 <apb_get_clock+0xe8>)
 8001160:	61fb      	str	r3, [r7, #28]
 8001162:	e011      	b.n	8001188 <apb_get_clock+0x48>
	}
	else if (clock_source == SYSCLK_SOURCE_HSE)
 8001164:	7cfb      	ldrb	r3, [r7, #19]
 8001166:	2b01      	cmp	r3, #1
 8001168:	d102      	bne.n	8001170 <apb_get_clock+0x30>
	{
		sysclk = 8000000;
 800116a:	4b2f      	ldr	r3, [pc, #188]	; (8001228 <apb_get_clock+0xe8>)
 800116c:	61fb      	str	r3, [r7, #28]
 800116e:	e00b      	b.n	8001188 <apb_get_clock+0x48>
	}
	else if (clock_source == SYSCLK_SOURCE_PLL)
 8001170:	7cfb      	ldrb	r3, [r7, #19]
 8001172:	2b02      	cmp	r3, #2
 8001174:	d103      	bne.n	800117e <apb_get_clock+0x3e>
	{
		sysclk = get_pll_clock();
 8001176:	f000 f85d 	bl	8001234 <get_pll_clock>
 800117a:	61f8      	str	r0, [r7, #28]
 800117c:	e004      	b.n	8001188 <apb_get_clock+0x48>
	}
	else if (clock_source == SYSCLK_SOURCE_PLL_R)
 800117e:	7cfb      	ldrb	r3, [r7, #19]
 8001180:	2b03      	cmp	r3, #3
 8001182:	d101      	bne.n	8001188 <apb_get_clock+0x48>
	{
		sysclk = 1; // study this and write the function for it.
 8001184:	2301      	movs	r3, #1
 8001186:	61fb      	str	r3, [r7, #28]
	}

	/*
	 * Get AHB Prescalar Value
	 */
	temp = (RCC->CFGR >> 4) & 0xF;
 8001188:	4b26      	ldr	r3, [pc, #152]	; (8001224 <apb_get_clock+0xe4>)
 800118a:	685b      	ldr	r3, [r3, #4]
 800118c:	091b      	lsrs	r3, r3, #4
 800118e:	f003 030f 	and.w	r3, r3, #15
 8001192:	60fb      	str	r3, [r7, #12]
	if (temp < 8)
 8001194:	68fb      	ldr	r3, [r7, #12]
 8001196:	2b07      	cmp	r3, #7
 8001198:	d802      	bhi.n	80011a0 <apb_get_clock+0x60>
	{
		ahbp = 1;
 800119a:	2301      	movs	r3, #1
 800119c:	61bb      	str	r3, [r7, #24]
 800119e:	e005      	b.n	80011ac <apb_get_clock+0x6c>
	}
	else
	{
		ahbp = ahb_prescaler_1[temp - 8];
 80011a0:	68fb      	ldr	r3, [r7, #12]
 80011a2:	3b08      	subs	r3, #8
 80011a4:	4a21      	ldr	r2, [pc, #132]	; (800122c <apb_get_clock+0xec>)
 80011a6:	f832 3013 	ldrh.w	r3, [r2, r3, lsl #1]
 80011aa:	61bb      	str	r3, [r7, #24]
	}

	/*
	 * Get APB1 Prescalar Value
	 */
	if (apb == APB1)
 80011ac:	79fb      	ldrb	r3, [r7, #7]
 80011ae:	2b01      	cmp	r3, #1
 80011b0:	d114      	bne.n	80011dc <apb_get_clock+0x9c>
	{
		temp = ((RCC->CFGR >> 10) && 0x7);
 80011b2:	4b1c      	ldr	r3, [pc, #112]	; (8001224 <apb_get_clock+0xe4>)
 80011b4:	685b      	ldr	r3, [r3, #4]
 80011b6:	0a9b      	lsrs	r3, r3, #10
 80011b8:	2b00      	cmp	r3, #0
 80011ba:	bf14      	ite	ne
 80011bc:	2301      	movne	r3, #1
 80011be:	2300      	moveq	r3, #0
 80011c0:	b2db      	uxtb	r3, r3
 80011c2:	60fb      	str	r3, [r7, #12]
		if (temp < 4)
 80011c4:	68fb      	ldr	r3, [r7, #12]
 80011c6:	2b03      	cmp	r3, #3
 80011c8:	d802      	bhi.n	80011d0 <apb_get_clock+0x90>
		{
			apbp = 1;
 80011ca:	2301      	movs	r3, #1
 80011cc:	617b      	str	r3, [r7, #20]
 80011ce:	e005      	b.n	80011dc <apb_get_clock+0x9c>
		}
		else
		{
			apbp = apb_prescaler_1[temp-4];
 80011d0:	68fb      	ldr	r3, [r7, #12]
 80011d2:	3b04      	subs	r3, #4
 80011d4:	4a16      	ldr	r2, [pc, #88]	; (8001230 <apb_get_clock+0xf0>)
 80011d6:	f832 3013 	ldrh.w	r3, [r2, r3, lsl #1]
 80011da:	617b      	str	r3, [r7, #20]
	}

	/*
	 * get APB2 Prescalar Value
	 */
	if (apb == APB2)
 80011dc:	79fb      	ldrb	r3, [r7, #7]
 80011de:	2b02      	cmp	r3, #2
 80011e0:	d114      	bne.n	800120c <apb_get_clock+0xcc>
	{
		temp = ((RCC->CFGR >> 13) && 0x7);
 80011e2:	4b10      	ldr	r3, [pc, #64]	; (8001224 <apb_get_clock+0xe4>)
 80011e4:	685b      	ldr	r3, [r3, #4]
 80011e6:	0b5b      	lsrs	r3, r3, #13
 80011e8:	2b00      	cmp	r3, #0
 80011ea:	bf14      	ite	ne
 80011ec:	2301      	movne	r3, #1
 80011ee:	2300      	moveq	r3, #0
 80011f0:	b2db      	uxtb	r3, r3
 80011f2:	60fb      	str	r3, [r7, #12]
		if (temp < 4)
 80011f4:	68fb      	ldr	r3, [r7, #12]
 80011f6:	2b03      	cmp	r3, #3
 80011f8:	d802      	bhi.n	8001200 <apb_get_clock+0xc0>
		{
			apbp = 1;
 80011fa:	2301      	movs	r3, #1
 80011fc:	617b      	str	r3, [r7, #20]
 80011fe:	e005      	b.n	800120c <apb_get_clock+0xcc>
		}
		else
		{
			apbp = apb_prescaler_1[temp-4];
 8001200:	68fb      	ldr	r3, [r7, #12]
 8001202:	3b04      	subs	r3, #4
 8001204:	4a0a      	ldr	r2, [pc, #40]	; (8001230 <apb_get_clock+0xf0>)
 8001206:	f832 3013 	ldrh.w	r3, [r2, r3, lsl #1]
 800120a:	617b      	str	r3, [r7, #20]
		}
	}
	return (sysclk / ahbp / apbp);
 800120c:	69fa      	ldr	r2, [r7, #28]
 800120e:	69bb      	ldr	r3, [r7, #24]
 8001210:	fbb2 f2f3 	udiv	r2, r2, r3
 8001214:	697b      	ldr	r3, [r7, #20]
 8001216:	fbb2 f3f3 	udiv	r3, r2, r3

}
 800121a:	4618      	mov	r0, r3
 800121c:	3720      	adds	r7, #32
 800121e:	46bd      	mov	sp, r7
 8001220:	bd80      	pop	{r7, pc}
 8001222:	bf00      	nop
 8001224:	40021000 	.word	0x40021000
 8001228:	007a1200 	.word	0x007a1200
 800122c:	2000000c 	.word	0x2000000c
 8001230:	2000001c 	.word	0x2000001c

08001234 <get_pll_clock>:




uint32_t get_pll_clock(void)
{
 8001234:	b480      	push	{r7}
 8001236:	b085      	sub	sp, #20
 8001238:	af00      	add	r7, sp, #0
	// PLL input Clock source
	// If PLL input clock source is HSE then check PLLXTRE in Register
	uint8_t clock_source = ( (RCC->CFGR >> 16) & 0x01);
 800123a:	4b1b      	ldr	r3, [pc, #108]	; (80012a8 <get_pll_clock+0x74>)
 800123c:	685b      	ldr	r3, [r3, #4]
 800123e:	0c1b      	lsrs	r3, r3, #16
 8001240:	b2db      	uxtb	r3, r3
 8001242:	f003 0301 	and.w	r3, r3, #1
 8001246:	72fb      	strb	r3, [r7, #11]
	uint32_t multipliation_factor = ( (RCC->CFGR >> 18) & 0x0F);
 8001248:	4b17      	ldr	r3, [pc, #92]	; (80012a8 <get_pll_clock+0x74>)
 800124a:	685b      	ldr	r3, [r3, #4]
 800124c:	0c9b      	lsrs	r3, r3, #18
 800124e:	f003 030f 	and.w	r3, r3, #15
 8001252:	607b      	str	r3, [r7, #4]
	uint32_t hse_pll_divider = ( (RCC->CFGR >> 17) & 0x01);
 8001254:	4b14      	ldr	r3, [pc, #80]	; (80012a8 <get_pll_clock+0x74>)
 8001256:	685b      	ldr	r3, [r3, #4]
 8001258:	0c5b      	lsrs	r3, r3, #17
 800125a:	f003 0301 	and.w	r3, r3, #1
 800125e:	603b      	str	r3, [r7, #0]
	uint32_t pll_out_clk = 0;
 8001260:	2300      	movs	r3, #0
 8001262:	60fb      	str	r3, [r7, #12]
	if (clock_source == PLL_HSI_DIV_2)
 8001264:	7afb      	ldrb	r3, [r7, #11]
 8001266:	2b00      	cmp	r3, #0
 8001268:	d109      	bne.n	800127e <get_pll_clock+0x4a>
	{
		pll_out_clk =  ( (HSI_INPUT / 2) * pll_multiplier[multipliation_factor]);
 800126a:	4a10      	ldr	r2, [pc, #64]	; (80012ac <get_pll_clock+0x78>)
 800126c:	687b      	ldr	r3, [r7, #4]
 800126e:	4413      	add	r3, r2
 8001270:	781b      	ldrb	r3, [r3, #0]
 8001272:	461a      	mov	r2, r3
 8001274:	4b0e      	ldr	r3, [pc, #56]	; (80012b0 <get_pll_clock+0x7c>)
 8001276:	fb02 f303 	mul.w	r3, r2, r3
 800127a:	60fb      	str	r3, [r7, #12]
 800127c:	e00e      	b.n	800129c <get_pll_clock+0x68>
	}
	else if (clock_source == PLL_HSE)
 800127e:	7afb      	ldrb	r3, [r7, #11]
 8001280:	2b01      	cmp	r3, #1
 8001282:	d10b      	bne.n	800129c <get_pll_clock+0x68>
	{
		pll_out_clk =  ( ( (HSE_INPUT) / (hse_pll_divider + 1) ) * pll_multiplier[multipliation_factor]);
 8001284:	683b      	ldr	r3, [r7, #0]
 8001286:	3301      	adds	r3, #1
 8001288:	4a0a      	ldr	r2, [pc, #40]	; (80012b4 <get_pll_clock+0x80>)
 800128a:	fbb2 f3f3 	udiv	r3, r2, r3
 800128e:	4907      	ldr	r1, [pc, #28]	; (80012ac <get_pll_clock+0x78>)
 8001290:	687a      	ldr	r2, [r7, #4]
 8001292:	440a      	add	r2, r1
 8001294:	7812      	ldrb	r2, [r2, #0]
 8001296:	fb02 f303 	mul.w	r3, r2, r3
 800129a:	60fb      	str	r3, [r7, #12]
	}
	return pll_out_clk;
 800129c:	68fb      	ldr	r3, [r7, #12]
}
 800129e:	4618      	mov	r0, r3
 80012a0:	3714      	adds	r7, #20
 80012a2:	46bd      	mov	sp, r7
 80012a4:	bc80      	pop	{r7}
 80012a6:	4770      	bx	lr
 80012a8:	40021000 	.word	0x40021000
 80012ac:	20000024 	.word	0x20000024
 80012b0:	003d0900 	.word	0x003d0900
 80012b4:	007a1200 	.word	0x007a1200

080012b8 <dmax_channel_init>:
		[CHANNEL_7 - 1] = {(uint32_t)&tx_buffer_data[0], (uint32_t)&(USART2->DR),0,LOW,READ_FROM_PERIPHERAL,CIRCULAR_MODE_DI,INCREMENT_MODE_DI,INCREMENT_MODE_EN,MS_8_BITS,TC_INTERRUPT_EN,DMA_CHANNEL_7_GLOBAL_IRQn,DISABLE}
	};


void dmax_channel_init(dma1_regdef_t *p_dma_x,uint8_t channel)
{
 80012b8:	b580      	push	{r7, lr}
 80012ba:	b082      	sub	sp, #8
 80012bc:	af00      	add	r7, sp, #0
 80012be:	6078      	str	r0, [r7, #4]
 80012c0:	460b      	mov	r3, r1
 80012c2:	70fb      	strb	r3, [r7, #3]
	p_dma_x->dma_channel[channel - 1].CMAR = dma1_channel_configuration[channel - 1].source_address;
 80012c4:	78fb      	ldrb	r3, [r7, #3]
 80012c6:	1e59      	subs	r1, r3, #1
 80012c8:	78fb      	ldrb	r3, [r7, #3]
 80012ca:	1e5a      	subs	r2, r3, #1
 80012cc:	4898      	ldr	r0, [pc, #608]	; (8001530 <dmax_channel_init+0x278>)
 80012ce:	460b      	mov	r3, r1
 80012d0:	005b      	lsls	r3, r3, #1
 80012d2:	440b      	add	r3, r1
 80012d4:	00db      	lsls	r3, r3, #3
 80012d6:	4403      	add	r3, r0
 80012d8:	6819      	ldr	r1, [r3, #0]
 80012da:	6878      	ldr	r0, [r7, #4]
 80012dc:	4613      	mov	r3, r2
 80012de:	009b      	lsls	r3, r3, #2
 80012e0:	4413      	add	r3, r2
 80012e2:	009b      	lsls	r3, r3, #2
 80012e4:	4403      	add	r3, r0
 80012e6:	3314      	adds	r3, #20
 80012e8:	6019      	str	r1, [r3, #0]

	p_dma_x->dma_channel[channel - 1].CPAR = dma1_channel_configuration[channel - 1].destination_address;
 80012ea:	78fb      	ldrb	r3, [r7, #3]
 80012ec:	1e59      	subs	r1, r3, #1
 80012ee:	78fb      	ldrb	r3, [r7, #3]
 80012f0:	1e5a      	subs	r2, r3, #1
 80012f2:	488f      	ldr	r0, [pc, #572]	; (8001530 <dmax_channel_init+0x278>)
 80012f4:	460b      	mov	r3, r1
 80012f6:	005b      	lsls	r3, r3, #1
 80012f8:	440b      	add	r3, r1
 80012fa:	00db      	lsls	r3, r3, #3
 80012fc:	4403      	add	r3, r0
 80012fe:	3304      	adds	r3, #4
 8001300:	6819      	ldr	r1, [r3, #0]
 8001302:	6878      	ldr	r0, [r7, #4]
 8001304:	4613      	mov	r3, r2
 8001306:	009b      	lsls	r3, r3, #2
 8001308:	4413      	add	r3, r2
 800130a:	009b      	lsls	r3, r3, #2
 800130c:	4403      	add	r3, r0
 800130e:	3310      	adds	r3, #16
 8001310:	6019      	str	r1, [r3, #0]

	p_dma_x->dma_channel[channel - 1].CNDTR = dma1_channel_configuration[channel - 1].data_count;
 8001312:	78fb      	ldrb	r3, [r7, #3]
 8001314:	1e59      	subs	r1, r3, #1
 8001316:	78fb      	ldrb	r3, [r7, #3]
 8001318:	1e5a      	subs	r2, r3, #1
 800131a:	4885      	ldr	r0, [pc, #532]	; (8001530 <dmax_channel_init+0x278>)
 800131c:	460b      	mov	r3, r1
 800131e:	005b      	lsls	r3, r3, #1
 8001320:	440b      	add	r3, r1
 8001322:	00db      	lsls	r3, r3, #3
 8001324:	4403      	add	r3, r0
 8001326:	3308      	adds	r3, #8
 8001328:	6819      	ldr	r1, [r3, #0]
 800132a:	6878      	ldr	r0, [r7, #4]
 800132c:	4613      	mov	r3, r2
 800132e:	009b      	lsls	r3, r3, #2
 8001330:	4413      	add	r3, r2
 8001332:	009b      	lsls	r3, r3, #2
 8001334:	4403      	add	r3, r0
 8001336:	330c      	adds	r3, #12
 8001338:	6019      	str	r1, [r3, #0]

	if (dma1_channel_configuration[channel - 1].direction){
 800133a:	78fb      	ldrb	r3, [r7, #3]
 800133c:	1e5a      	subs	r2, r3, #1
 800133e:	497c      	ldr	r1, [pc, #496]	; (8001530 <dmax_channel_init+0x278>)
 8001340:	4613      	mov	r3, r2
 8001342:	005b      	lsls	r3, r3, #1
 8001344:	4413      	add	r3, r2
 8001346:	00db      	lsls	r3, r3, #3
 8001348:	440b      	add	r3, r1
 800134a:	3310      	adds	r3, #16
 800134c:	781b      	ldrb	r3, [r3, #0]
 800134e:	2b00      	cmp	r3, #0
 8001350:	d016      	beq.n	8001380 <dmax_channel_init+0xc8>
		p_dma_x->dma_channel[channel - 1].CCR |= DMA_DIRECTION_BIT_POSTION;
 8001352:	78fb      	ldrb	r3, [r7, #3]
 8001354:	1e5a      	subs	r2, r3, #1
 8001356:	6879      	ldr	r1, [r7, #4]
 8001358:	4613      	mov	r3, r2
 800135a:	009b      	lsls	r3, r3, #2
 800135c:	4413      	add	r3, r2
 800135e:	009b      	lsls	r3, r3, #2
 8001360:	440b      	add	r3, r1
 8001362:	3308      	adds	r3, #8
 8001364:	681b      	ldr	r3, [r3, #0]
 8001366:	78fa      	ldrb	r2, [r7, #3]
 8001368:	3a01      	subs	r2, #1
 800136a:	f043 0110 	orr.w	r1, r3, #16
 800136e:	6878      	ldr	r0, [r7, #4]
 8001370:	4613      	mov	r3, r2
 8001372:	009b      	lsls	r3, r3, #2
 8001374:	4413      	add	r3, r2
 8001376:	009b      	lsls	r3, r3, #2
 8001378:	4403      	add	r3, r0
 800137a:	3308      	adds	r3, #8
 800137c:	6019      	str	r1, [r3, #0]
 800137e:	e015      	b.n	80013ac <dmax_channel_init+0xf4>
	}
	else
	{
		p_dma_x->dma_channel[channel - 1].CCR &= ~DMA_DIRECTION_BIT_POSTION;
 8001380:	78fb      	ldrb	r3, [r7, #3]
 8001382:	1e5a      	subs	r2, r3, #1
 8001384:	6879      	ldr	r1, [r7, #4]
 8001386:	4613      	mov	r3, r2
 8001388:	009b      	lsls	r3, r3, #2
 800138a:	4413      	add	r3, r2
 800138c:	009b      	lsls	r3, r3, #2
 800138e:	440b      	add	r3, r1
 8001390:	3308      	adds	r3, #8
 8001392:	681b      	ldr	r3, [r3, #0]
 8001394:	78fa      	ldrb	r2, [r7, #3]
 8001396:	3a01      	subs	r2, #1
 8001398:	f023 0110 	bic.w	r1, r3, #16
 800139c:	6878      	ldr	r0, [r7, #4]
 800139e:	4613      	mov	r3, r2
 80013a0:	009b      	lsls	r3, r3, #2
 80013a2:	4413      	add	r3, r2
 80013a4:	009b      	lsls	r3, r3, #2
 80013a6:	4403      	add	r3, r0
 80013a8:	3308      	adds	r3, #8
 80013aa:	6019      	str	r1, [r3, #0]
	}

	p_dma_x->dma_channel[channel - 1].CCR &= ~(DMA_PRIORITY_BIT_POS_MASK);
 80013ac:	78fb      	ldrb	r3, [r7, #3]
 80013ae:	1e5a      	subs	r2, r3, #1
 80013b0:	6879      	ldr	r1, [r7, #4]
 80013b2:	4613      	mov	r3, r2
 80013b4:	009b      	lsls	r3, r3, #2
 80013b6:	4413      	add	r3, r2
 80013b8:	009b      	lsls	r3, r3, #2
 80013ba:	440b      	add	r3, r1
 80013bc:	3308      	adds	r3, #8
 80013be:	681b      	ldr	r3, [r3, #0]
 80013c0:	78fa      	ldrb	r2, [r7, #3]
 80013c2:	3a01      	subs	r2, #1
 80013c4:	f423 5140 	bic.w	r1, r3, #12288	; 0x3000
 80013c8:	6878      	ldr	r0, [r7, #4]
 80013ca:	4613      	mov	r3, r2
 80013cc:	009b      	lsls	r3, r3, #2
 80013ce:	4413      	add	r3, r2
 80013d0:	009b      	lsls	r3, r3, #2
 80013d2:	4403      	add	r3, r0
 80013d4:	3308      	adds	r3, #8
 80013d6:	6019      	str	r1, [r3, #0]
	p_dma_x->dma_channel[channel - 1].CCR |= (dma1_channel_configuration[channel - 1].priority_level << DMA_PRIORITY_BIT_POSITON);
 80013d8:	78fb      	ldrb	r3, [r7, #3]
 80013da:	1e5a      	subs	r2, r3, #1
 80013dc:	6879      	ldr	r1, [r7, #4]
 80013de:	4613      	mov	r3, r2
 80013e0:	009b      	lsls	r3, r3, #2
 80013e2:	4413      	add	r3, r2
 80013e4:	009b      	lsls	r3, r3, #2
 80013e6:	440b      	add	r3, r1
 80013e8:	3308      	adds	r3, #8
 80013ea:	6819      	ldr	r1, [r3, #0]
 80013ec:	78fb      	ldrb	r3, [r7, #3]
 80013ee:	1e5a      	subs	r2, r3, #1
 80013f0:	484f      	ldr	r0, [pc, #316]	; (8001530 <dmax_channel_init+0x278>)
 80013f2:	4613      	mov	r3, r2
 80013f4:	005b      	lsls	r3, r3, #1
 80013f6:	4413      	add	r3, r2
 80013f8:	00db      	lsls	r3, r3, #3
 80013fa:	4403      	add	r3, r0
 80013fc:	330c      	adds	r3, #12
 80013fe:	681b      	ldr	r3, [r3, #0]
 8001400:	031b      	lsls	r3, r3, #12
 8001402:	78fa      	ldrb	r2, [r7, #3]
 8001404:	3a01      	subs	r2, #1
 8001406:	4319      	orrs	r1, r3
 8001408:	6878      	ldr	r0, [r7, #4]
 800140a:	4613      	mov	r3, r2
 800140c:	009b      	lsls	r3, r3, #2
 800140e:	4413      	add	r3, r2
 8001410:	009b      	lsls	r3, r3, #2
 8001412:	4403      	add	r3, r0
 8001414:	3308      	adds	r3, #8
 8001416:	6019      	str	r1, [r3, #0]

	if (dma1_channel_configuration[channel - 1].circular_mode){
 8001418:	78fb      	ldrb	r3, [r7, #3]
 800141a:	1e5a      	subs	r2, r3, #1
 800141c:	4944      	ldr	r1, [pc, #272]	; (8001530 <dmax_channel_init+0x278>)
 800141e:	4613      	mov	r3, r2
 8001420:	005b      	lsls	r3, r3, #1
 8001422:	4413      	add	r3, r2
 8001424:	00db      	lsls	r3, r3, #3
 8001426:	440b      	add	r3, r1
 8001428:	3311      	adds	r3, #17
 800142a:	781b      	ldrb	r3, [r3, #0]
 800142c:	2b00      	cmp	r3, #0
 800142e:	d016      	beq.n	800145e <dmax_channel_init+0x1a6>
		p_dma_x->dma_channel[channel - 1].CCR |= DMA_CIRCULAR_MODE_BTI_POSTION;
 8001430:	78fb      	ldrb	r3, [r7, #3]
 8001432:	1e5a      	subs	r2, r3, #1
 8001434:	6879      	ldr	r1, [r7, #4]
 8001436:	4613      	mov	r3, r2
 8001438:	009b      	lsls	r3, r3, #2
 800143a:	4413      	add	r3, r2
 800143c:	009b      	lsls	r3, r3, #2
 800143e:	440b      	add	r3, r1
 8001440:	3308      	adds	r3, #8
 8001442:	681b      	ldr	r3, [r3, #0]
 8001444:	78fa      	ldrb	r2, [r7, #3]
 8001446:	3a01      	subs	r2, #1
 8001448:	f043 0120 	orr.w	r1, r3, #32
 800144c:	6878      	ldr	r0, [r7, #4]
 800144e:	4613      	mov	r3, r2
 8001450:	009b      	lsls	r3, r3, #2
 8001452:	4413      	add	r3, r2
 8001454:	009b      	lsls	r3, r3, #2
 8001456:	4403      	add	r3, r0
 8001458:	3308      	adds	r3, #8
 800145a:	6019      	str	r1, [r3, #0]
 800145c:	e015      	b.n	800148a <dmax_channel_init+0x1d2>
	}
	else
	{
		p_dma_x->dma_channel[channel - 1].CCR &= ~DMA_CIRCULAR_MODE_BTI_POSTION;
 800145e:	78fb      	ldrb	r3, [r7, #3]
 8001460:	1e5a      	subs	r2, r3, #1
 8001462:	6879      	ldr	r1, [r7, #4]
 8001464:	4613      	mov	r3, r2
 8001466:	009b      	lsls	r3, r3, #2
 8001468:	4413      	add	r3, r2
 800146a:	009b      	lsls	r3, r3, #2
 800146c:	440b      	add	r3, r1
 800146e:	3308      	adds	r3, #8
 8001470:	681b      	ldr	r3, [r3, #0]
 8001472:	78fa      	ldrb	r2, [r7, #3]
 8001474:	3a01      	subs	r2, #1
 8001476:	f023 0120 	bic.w	r1, r3, #32
 800147a:	6878      	ldr	r0, [r7, #4]
 800147c:	4613      	mov	r3, r2
 800147e:	009b      	lsls	r3, r3, #2
 8001480:	4413      	add	r3, r2
 8001482:	009b      	lsls	r3, r3, #2
 8001484:	4403      	add	r3, r0
 8001486:	3308      	adds	r3, #8
 8001488:	6019      	str	r1, [r3, #0]
	}

	// TO DO: Data size default to 8 bit and increment mode default. write fucntion to do that.
	// TO DO: Write the function to set appropirate interrupt as currently just setting the TC interrupt
	p_dma_x->dma_channel[channel - 1].CCR |= (1 << 7);
 800148a:	78fb      	ldrb	r3, [r7, #3]
 800148c:	1e5a      	subs	r2, r3, #1
 800148e:	6879      	ldr	r1, [r7, #4]
 8001490:	4613      	mov	r3, r2
 8001492:	009b      	lsls	r3, r3, #2
 8001494:	4413      	add	r3, r2
 8001496:	009b      	lsls	r3, r3, #2
 8001498:	440b      	add	r3, r1
 800149a:	3308      	adds	r3, #8
 800149c:	681b      	ldr	r3, [r3, #0]
 800149e:	78fa      	ldrb	r2, [r7, #3]
 80014a0:	3a01      	subs	r2, #1
 80014a2:	f043 0180 	orr.w	r1, r3, #128	; 0x80
 80014a6:	6878      	ldr	r0, [r7, #4]
 80014a8:	4613      	mov	r3, r2
 80014aa:	009b      	lsls	r3, r3, #2
 80014ac:	4413      	add	r3, r2
 80014ae:	009b      	lsls	r3, r3, #2
 80014b0:	4403      	add	r3, r0
 80014b2:	3308      	adds	r3, #8
 80014b4:	6019      	str	r1, [r3, #0]
	p_dma_x->dma_channel[channel - 1].CCR |= dma1_channel_configuration[channel - 1].interrupt_type;
 80014b6:	78fb      	ldrb	r3, [r7, #3]
 80014b8:	1e5a      	subs	r2, r3, #1
 80014ba:	6879      	ldr	r1, [r7, #4]
 80014bc:	4613      	mov	r3, r2
 80014be:	009b      	lsls	r3, r3, #2
 80014c0:	4413      	add	r3, r2
 80014c2:	009b      	lsls	r3, r3, #2
 80014c4:	440b      	add	r3, r1
 80014c6:	3308      	adds	r3, #8
 80014c8:	6819      	ldr	r1, [r3, #0]
 80014ca:	78fb      	ldrb	r3, [r7, #3]
 80014cc:	1e5a      	subs	r2, r3, #1
 80014ce:	4818      	ldr	r0, [pc, #96]	; (8001530 <dmax_channel_init+0x278>)
 80014d0:	4613      	mov	r3, r2
 80014d2:	005b      	lsls	r3, r3, #1
 80014d4:	4413      	add	r3, r2
 80014d6:	00db      	lsls	r3, r3, #3
 80014d8:	4403      	add	r3, r0
 80014da:	3315      	adds	r3, #21
 80014dc:	781b      	ldrb	r3, [r3, #0]
 80014de:	4618      	mov	r0, r3
 80014e0:	78fb      	ldrb	r3, [r7, #3]
 80014e2:	1e5a      	subs	r2, r3, #1
 80014e4:	4301      	orrs	r1, r0
 80014e6:	6878      	ldr	r0, [r7, #4]
 80014e8:	4613      	mov	r3, r2
 80014ea:	009b      	lsls	r3, r3, #2
 80014ec:	4413      	add	r3, r2
 80014ee:	009b      	lsls	r3, r3, #2
 80014f0:	4403      	add	r3, r0
 80014f2:	3308      	adds	r3, #8
 80014f4:	6019      	str	r1, [r3, #0]
	if (dma1_channel_configuration[channel - 1].interrupt_type != 0)
 80014f6:	78fb      	ldrb	r3, [r7, #3]
 80014f8:	1e5a      	subs	r2, r3, #1
 80014fa:	490d      	ldr	r1, [pc, #52]	; (8001530 <dmax_channel_init+0x278>)
 80014fc:	4613      	mov	r3, r2
 80014fe:	005b      	lsls	r3, r3, #1
 8001500:	4413      	add	r3, r2
 8001502:	00db      	lsls	r3, r3, #3
 8001504:	440b      	add	r3, r1
 8001506:	3315      	adds	r3, #21
 8001508:	781b      	ldrb	r3, [r3, #0]
 800150a:	2b00      	cmp	r3, #0
 800150c:	d00c      	beq.n	8001528 <dmax_channel_init+0x270>
		nvic_en_irq(dma1_channel_configuration[channel - 1].dma_channel_irqn);
 800150e:	78fb      	ldrb	r3, [r7, #3]
 8001510:	1e5a      	subs	r2, r3, #1
 8001512:	4907      	ldr	r1, [pc, #28]	; (8001530 <dmax_channel_init+0x278>)
 8001514:	4613      	mov	r3, r2
 8001516:	005b      	lsls	r3, r3, #1
 8001518:	4413      	add	r3, r2
 800151a:	00db      	lsls	r3, r3, #3
 800151c:	440b      	add	r3, r1
 800151e:	3316      	adds	r3, #22
 8001520:	781b      	ldrb	r3, [r3, #0]
 8001522:	4618      	mov	r0, r3
 8001524:	f000 fd42 	bl	8001fac <nvic_en_irq>
	if (dma1_channel_configuration[channel - 1].en_di)
	{

	}
		//p_dma_x->dma_channel[channel - 1].CCR |= (1 << 0);
}
 8001528:	bf00      	nop
 800152a:	3708      	adds	r7, #8
 800152c:	46bd      	mov	sp, r7
 800152e:	bd80      	pop	{r7, pc}
 8001530:	20000034 	.word	0x20000034

08001534 <dma_counter_set>:


void dma_counter_set(dma1_regdef_t *p_dma_x,uint8_t channel, uint16_t data_len)
{
 8001534:	b480      	push	{r7}
 8001536:	b083      	sub	sp, #12
 8001538:	af00      	add	r7, sp, #0
 800153a:	6078      	str	r0, [r7, #4]
 800153c:	460b      	mov	r3, r1
 800153e:	70fb      	strb	r3, [r7, #3]
 8001540:	4613      	mov	r3, r2
 8001542:	803b      	strh	r3, [r7, #0]
	p_dma_x->dma_channel[channel - 1].CNDTR = data_len;
 8001544:	78fb      	ldrb	r3, [r7, #3]
 8001546:	1e5a      	subs	r2, r3, #1
 8001548:	8839      	ldrh	r1, [r7, #0]
 800154a:	6878      	ldr	r0, [r7, #4]
 800154c:	4613      	mov	r3, r2
 800154e:	009b      	lsls	r3, r3, #2
 8001550:	4413      	add	r3, r2
 8001552:	009b      	lsls	r3, r3, #2
 8001554:	4403      	add	r3, r0
 8001556:	330c      	adds	r3, #12
 8001558:	6019      	str	r1, [r3, #0]
}
 800155a:	bf00      	nop
 800155c:	370c      	adds	r7, #12
 800155e:	46bd      	mov	sp, r7
 8001560:	bc80      	pop	{r7}
 8001562:	4770      	bx	lr

08001564 <dma_channel_en>:


void dma_channel_en(dma1_regdef_t *p_dma_x,uint8_t channel, uint16_t en_di)
{
 8001564:	b480      	push	{r7}
 8001566:	b083      	sub	sp, #12
 8001568:	af00      	add	r7, sp, #0
 800156a:	6078      	str	r0, [r7, #4]
 800156c:	460b      	mov	r3, r1
 800156e:	70fb      	strb	r3, [r7, #3]
 8001570:	4613      	mov	r3, r2
 8001572:	803b      	strh	r3, [r7, #0]
	if (en_di)
 8001574:	883b      	ldrh	r3, [r7, #0]
 8001576:	2b00      	cmp	r3, #0
 8001578:	d016      	beq.n	80015a8 <dma_channel_en+0x44>
		p_dma_x->dma_channel[channel - 1].CCR |= (1 << 0);
 800157a:	78fb      	ldrb	r3, [r7, #3]
 800157c:	1e5a      	subs	r2, r3, #1
 800157e:	6879      	ldr	r1, [r7, #4]
 8001580:	4613      	mov	r3, r2
 8001582:	009b      	lsls	r3, r3, #2
 8001584:	4413      	add	r3, r2
 8001586:	009b      	lsls	r3, r3, #2
 8001588:	440b      	add	r3, r1
 800158a:	3308      	adds	r3, #8
 800158c:	681b      	ldr	r3, [r3, #0]
 800158e:	78fa      	ldrb	r2, [r7, #3]
 8001590:	3a01      	subs	r2, #1
 8001592:	f043 0101 	orr.w	r1, r3, #1
 8001596:	6878      	ldr	r0, [r7, #4]
 8001598:	4613      	mov	r3, r2
 800159a:	009b      	lsls	r3, r3, #2
 800159c:	4413      	add	r3, r2
 800159e:	009b      	lsls	r3, r3, #2
 80015a0:	4403      	add	r3, r0
 80015a2:	3308      	adds	r3, #8
 80015a4:	6019      	str	r1, [r3, #0]
	else
		p_dma_x->dma_channel[channel - 1].CCR &= ~(1 << 0);
}
 80015a6:	e015      	b.n	80015d4 <dma_channel_en+0x70>
		p_dma_x->dma_channel[channel - 1].CCR &= ~(1 << 0);
 80015a8:	78fb      	ldrb	r3, [r7, #3]
 80015aa:	1e5a      	subs	r2, r3, #1
 80015ac:	6879      	ldr	r1, [r7, #4]
 80015ae:	4613      	mov	r3, r2
 80015b0:	009b      	lsls	r3, r3, #2
 80015b2:	4413      	add	r3, r2
 80015b4:	009b      	lsls	r3, r3, #2
 80015b6:	440b      	add	r3, r1
 80015b8:	3308      	adds	r3, #8
 80015ba:	681b      	ldr	r3, [r3, #0]
 80015bc:	78fa      	ldrb	r2, [r7, #3]
 80015be:	3a01      	subs	r2, #1
 80015c0:	f023 0101 	bic.w	r1, r3, #1
 80015c4:	6878      	ldr	r0, [r7, #4]
 80015c6:	4613      	mov	r3, r2
 80015c8:	009b      	lsls	r3, r3, #2
 80015ca:	4413      	add	r3, r2
 80015cc:	009b      	lsls	r3, r3, #2
 80015ce:	4403      	add	r3, r0
 80015d0:	3308      	adds	r3, #8
 80015d2:	6019      	str	r1, [r3, #0]
}
 80015d4:	bf00      	nop
 80015d6:	370c      	adds	r7, #12
 80015d8:	46bd      	mov	sp, r7
 80015da:	bc80      	pop	{r7}
 80015dc:	4770      	bx	lr

080015de <dma1_channel6_interrupt_handling>:

void dma1_channel6_interrupt_handling(dma1_regdef_t *p_dma_x,usartx_regdef_t *p_usartx)
{
 80015de:	b480      	push	{r7}
 80015e0:	b083      	sub	sp, #12
 80015e2:	af00      	add	r7, sp, #0
 80015e4:	6078      	str	r0, [r7, #4]
 80015e6:	6039      	str	r1, [r7, #0]
	if ( (p_dma_x->ISR >> 20) & 0x01)
 80015e8:	687b      	ldr	r3, [r7, #4]
 80015ea:	681b      	ldr	r3, [r3, #0]
 80015ec:	0d1b      	lsrs	r3, r3, #20
 80015ee:	f003 0301 	and.w	r3, r3, #1
 80015f2:	2b00      	cmp	r3, #0
 80015f4:	d005      	beq.n	8001602 <dma1_channel6_interrupt_handling+0x24>
	{
		p_dma_x->IFCR |= (1 << 20);
 80015f6:	687b      	ldr	r3, [r7, #4]
 80015f8:	685b      	ldr	r3, [r3, #4]
 80015fa:	f443 1280 	orr.w	r2, r3, #1048576	; 0x100000
 80015fe:	687b      	ldr	r3, [r7, #4]
 8001600:	605a      	str	r2, [r3, #4]
	}
}
 8001602:	bf00      	nop
 8001604:	370c      	adds	r7, #12
 8001606:	46bd      	mov	sp, r7
 8001608:	bc80      	pop	{r7}
 800160a:	4770      	bx	lr

0800160c <dma1_channel7_interrupt_handling>:

void dma1_channel7_interrupt_handling(dma1_regdef_t *p_dma_x,usartx_regdef_t *p_usartx)
{
 800160c:	b480      	push	{r7}
 800160e:	b083      	sub	sp, #12
 8001610:	af00      	add	r7, sp, #0
 8001612:	6078      	str	r0, [r7, #4]
 8001614:	6039      	str	r1, [r7, #0]
	if ( (p_dma_x->ISR >> 24) & 0x01)
 8001616:	687b      	ldr	r3, [r7, #4]
 8001618:	681b      	ldr	r3, [r3, #0]
 800161a:	0e1b      	lsrs	r3, r3, #24
 800161c:	f003 0301 	and.w	r3, r3, #1
 8001620:	2b00      	cmp	r3, #0
 8001622:	d005      	beq.n	8001630 <dma1_channel7_interrupt_handling+0x24>
	{
		p_dma_x->IFCR |= (1 << 24);
 8001624:	687b      	ldr	r3, [r7, #4]
 8001626:	685b      	ldr	r3, [r3, #4]
 8001628:	f043 7280 	orr.w	r2, r3, #16777216	; 0x1000000
 800162c:	687b      	ldr	r3, [r7, #4]
 800162e:	605a      	str	r2, [r3, #4]

	}
}
 8001630:	bf00      	nop
 8001632:	370c      	adds	r7, #12
 8001634:	46bd      	mov	sp, r7
 8001636:	bc80      	pop	{r7}
 8001638:	4770      	bx	lr
	...

0800163c <dma1_channel4_interrupt_handling>:

void dma1_channel4_interrupt_handling(dma1_regdef_t *p_dma_x,i2cx_regdef_t *p_i2cx)
{
 800163c:	b580      	push	{r7, lr}
 800163e:	b082      	sub	sp, #8
 8001640:	af00      	add	r7, sp, #0
 8001642:	6078      	str	r0, [r7, #4]
 8001644:	6039      	str	r1, [r7, #0]

	if ( (p_dma_x->ISR >> 12) & 0x01)
 8001646:	687b      	ldr	r3, [r7, #4]
 8001648:	681b      	ldr	r3, [r3, #0]
 800164a:	0b1b      	lsrs	r3, r3, #12
 800164c:	f003 0301 	and.w	r3, r3, #1
 8001650:	2b00      	cmp	r3, #0
 8001652:	d029      	beq.n	80016a8 <dma1_channel4_interrupt_handling+0x6c>
	{
		p_dma_x->IFCR |= (1 << 12);
 8001654:	687b      	ldr	r3, [r7, #4]
 8001656:	685b      	ldr	r3, [r3, #4]
 8001658:	f443 5280 	orr.w	r2, r3, #4096	; 0x1000
 800165c:	687b      	ldr	r3, [r7, #4]
 800165e:	605a      	str	r2, [r3, #4]
		dma_channel_en(DMA1,CHANNEL_4,DI);
 8001660:	2200      	movs	r2, #0
 8001662:	2104      	movs	r1, #4
 8001664:	4812      	ldr	r0, [pc, #72]	; (80016b0 <dma1_channel4_interrupt_handling+0x74>)
 8001666:	f7ff ff7d 	bl	8001564 <dma_channel_en>
		if (!flag_dma_based_read)
 800166a:	4b12      	ldr	r3, [pc, #72]	; (80016b4 <dma1_channel4_interrupt_handling+0x78>)
 800166c:	781b      	ldrb	r3, [r3, #0]
 800166e:	2b00      	cmp	r3, #0
 8001670:	d10b      	bne.n	800168a <dma1_channel4_interrupt_handling+0x4e>
		{
			while(!get_flag_status_sr1(p_i2cx,FLAG_BTF_SR1));//waite for BTF to set.
 8001672:	bf00      	nop
 8001674:	2104      	movs	r1, #4
 8001676:	6838      	ldr	r0, [r7, #0]
 8001678:	f000 fab4 	bl	8001be4 <get_flag_status_sr1>
 800167c:	4603      	mov	r3, r0
 800167e:	2b00      	cmp	r3, #0
 8001680:	d0f8      	beq.n	8001674 <dma1_channel4_interrupt_handling+0x38>
			send_stop(p_i2cx); // send stop
 8001682:	6838      	ldr	r0, [r7, #0]
 8001684:	f000 fa9c 	bl	8001bc0 <send_stop>
			while(!get_flag_status_sr1(p_i2cx,FLAG_BTF_SR1));//waite for BTF to set.
			send_repeated_start(I2C2);
		}
	}

}
 8001688:	e00e      	b.n	80016a8 <dma1_channel4_interrupt_handling+0x6c>
		else if(flag_dma_based_read)
 800168a:	4b0a      	ldr	r3, [pc, #40]	; (80016b4 <dma1_channel4_interrupt_handling+0x78>)
 800168c:	781b      	ldrb	r3, [r3, #0]
 800168e:	2b00      	cmp	r3, #0
 8001690:	d00a      	beq.n	80016a8 <dma1_channel4_interrupt_handling+0x6c>
			while(!get_flag_status_sr1(p_i2cx,FLAG_BTF_SR1));//waite for BTF to set.
 8001692:	bf00      	nop
 8001694:	2104      	movs	r1, #4
 8001696:	6838      	ldr	r0, [r7, #0]
 8001698:	f000 faa4 	bl	8001be4 <get_flag_status_sr1>
 800169c:	4603      	mov	r3, r0
 800169e:	2b00      	cmp	r3, #0
 80016a0:	d0f8      	beq.n	8001694 <dma1_channel4_interrupt_handling+0x58>
			send_repeated_start(I2C2);
 80016a2:	4805      	ldr	r0, [pc, #20]	; (80016b8 <dma1_channel4_interrupt_handling+0x7c>)
 80016a4:	f000 fb02 	bl	8001cac <send_repeated_start>
}
 80016a8:	bf00      	nop
 80016aa:	3708      	adds	r7, #8
 80016ac:	46bd      	mov	sp, r7
 80016ae:	bd80      	pop	{r7, pc}
 80016b0:	40020000 	.word	0x40020000
 80016b4:	20000228 	.word	0x20000228
 80016b8:	40005800 	.word	0x40005800

080016bc <dma1_channel5_interrupt_handling>:

void dma1_channel5_interrupt_handling(dma1_regdef_t *p_dma_x,i2cx_regdef_t *p_i2cx)
{
 80016bc:	b580      	push	{r7, lr}
 80016be:	b082      	sub	sp, #8
 80016c0:	af00      	add	r7, sp, #0
 80016c2:	6078      	str	r0, [r7, #4]
 80016c4:	6039      	str	r1, [r7, #0]

	if ( (p_dma_x->ISR >> 16) & 0x01)
 80016c6:	687b      	ldr	r3, [r7, #4]
 80016c8:	681b      	ldr	r3, [r3, #0]
 80016ca:	0c1b      	lsrs	r3, r3, #16
 80016cc:	f003 0301 	and.w	r3, r3, #1
 80016d0:	2b00      	cmp	r3, #0
 80016d2:	d00e      	beq.n	80016f2 <dma1_channel5_interrupt_handling+0x36>
	{
		p_dma_x->IFCR |= (1 << 16);						 //clear the interrupt
 80016d4:	687b      	ldr	r3, [r7, #4]
 80016d6:	685b      	ldr	r3, [r3, #4]
 80016d8:	f443 3280 	orr.w	r2, r3, #65536	; 0x10000
 80016dc:	687b      	ldr	r3, [r7, #4]
 80016de:	605a      	str	r2, [r3, #4]
		p_i2cx->CR2 &= ~(1 << DMA_EN_BI_POSITION_CR2);	 //Disable the DMA
 80016e0:	683b      	ldr	r3, [r7, #0]
 80016e2:	685b      	ldr	r3, [r3, #4]
 80016e4:	f423 6200 	bic.w	r2, r3, #2048	; 0x800
 80016e8:	683b      	ldr	r3, [r7, #0]
 80016ea:	605a      	str	r2, [r3, #4]
		//while(!get_flag_status_sr1(p_i2cx,FLAG_BTF_SR1));//waite for BTF to set.
		send_stop(p_i2cx); // send stop
 80016ec:	6838      	ldr	r0, [r7, #0]
 80016ee:	f000 fa67 	bl	8001bc0 <send_stop>
	}

}
 80016f2:	bf00      	nop
 80016f4:	3708      	adds	r7, #8
 80016f6:	46bd      	mov	sp, r7
 80016f8:	bd80      	pop	{r7, pc}
	...

080016fc <DMA1_Channel4_IRQHandler>:

void DMA1_Channel4_IRQHandler(void)
{
 80016fc:	b580      	push	{r7, lr}
 80016fe:	af00      	add	r7, sp, #0
	dma1_channel4_interrupt_handling(DMA1,I2C2);
 8001700:	4902      	ldr	r1, [pc, #8]	; (800170c <DMA1_Channel4_IRQHandler+0x10>)
 8001702:	4803      	ldr	r0, [pc, #12]	; (8001710 <DMA1_Channel4_IRQHandler+0x14>)
 8001704:	f7ff ff9a 	bl	800163c <dma1_channel4_interrupt_handling>
}
 8001708:	bf00      	nop
 800170a:	bd80      	pop	{r7, pc}
 800170c:	40005800 	.word	0x40005800
 8001710:	40020000 	.word	0x40020000

08001714 <DMA1_Channel5_IRQHandler>:

void DMA1_Channel5_IRQHandler(void)
{
 8001714:	b580      	push	{r7, lr}
 8001716:	af00      	add	r7, sp, #0
	dma1_channel5_interrupt_handling(DMA1,I2C2);
 8001718:	4902      	ldr	r1, [pc, #8]	; (8001724 <DMA1_Channel5_IRQHandler+0x10>)
 800171a:	4803      	ldr	r0, [pc, #12]	; (8001728 <DMA1_Channel5_IRQHandler+0x14>)
 800171c:	f7ff ffce 	bl	80016bc <dma1_channel5_interrupt_handling>
}
 8001720:	bf00      	nop
 8001722:	bd80      	pop	{r7, pc}
 8001724:	40005800 	.word	0x40005800
 8001728:	40020000 	.word	0x40020000

0800172c <DMA1_Channel6_IRQHandler>:

void DMA1_Channel6_IRQHandler(void)
{
 800172c:	b580      	push	{r7, lr}
 800172e:	af00      	add	r7, sp, #0
	dma1_channel6_interrupt_handling(DMA1,USART2);
 8001730:	4902      	ldr	r1, [pc, #8]	; (800173c <DMA1_Channel6_IRQHandler+0x10>)
 8001732:	4803      	ldr	r0, [pc, #12]	; (8001740 <DMA1_Channel6_IRQHandler+0x14>)
 8001734:	f7ff ff53 	bl	80015de <dma1_channel6_interrupt_handling>
}
 8001738:	bf00      	nop
 800173a:	bd80      	pop	{r7, pc}
 800173c:	40004400 	.word	0x40004400
 8001740:	40020000 	.word	0x40020000

08001744 <DMA1_Channel7_IRQHandler>:

void DMA1_Channel7_IRQHandler(void)
{
 8001744:	b580      	push	{r7, lr}
 8001746:	af00      	add	r7, sp, #0
	dma1_channel7_interrupt_handling(DMA1,USART2);
 8001748:	4902      	ldr	r1, [pc, #8]	; (8001754 <DMA1_Channel7_IRQHandler+0x10>)
 800174a:	4803      	ldr	r0, [pc, #12]	; (8001758 <DMA1_Channel7_IRQHandler+0x14>)
 800174c:	f7ff ff5e 	bl	800160c <dma1_channel7_interrupt_handling>
}
 8001750:	bf00      	nop
 8001752:	bd80      	pop	{r7, pc}
 8001754:	40004400 	.word	0x40004400
 8001758:	40020000 	.word	0x40020000

0800175c <io_port>:

#define LED_ON() 			io_set_out(IO_TEST_LED, OUT_STATE_LOW);
#define LED_OFF() 			io_set_out(IO_TEST_LED, OUT_STATE_HIGH);

static uint8_t io_port(io_e io)
{
 800175c:	b480      	push	{r7}
 800175e:	b083      	sub	sp, #12
 8001760:	af00      	add	r7, sp, #0
 8001762:	4603      	mov	r3, r0
 8001764:	71fb      	strb	r3, [r7, #7]
    return (io & IO_PORT_MASK) >> IO_PORT_OFFSET;
 8001766:	79fb      	ldrb	r3, [r7, #7]
 8001768:	091b      	lsrs	r3, r3, #4
 800176a:	b2db      	uxtb	r3, r3
 800176c:	f003 0303 	and.w	r3, r3, #3
 8001770:	b2db      	uxtb	r3, r3
}
 8001772:	4618      	mov	r0, r3
 8001774:	370c      	adds	r7, #12
 8001776:	46bd      	mov	sp, r7
 8001778:	bc80      	pop	{r7}
 800177a:	4770      	bx	lr

0800177c <io_pin_bit>:

static uint8_t io_pin_bit(gpio_pins io)
{
 800177c:	b480      	push	{r7}
 800177e:	b083      	sub	sp, #12
 8001780:	af00      	add	r7, sp, #0
 8001782:	4603      	mov	r3, r0
 8001784:	71fb      	strb	r3, [r7, #7]
    return io & IO_PIN_MASK;
 8001786:	79fb      	ldrb	r3, [r7, #7]
 8001788:	f003 030f 	and.w	r3, r3, #15
 800178c:	b2db      	uxtb	r3, r3
}
 800178e:	4618      	mov	r0, r3
 8001790:	370c      	adds	r7, #12
 8001792:	46bd      	mov	sp, r7
 8001794:	bc80      	pop	{r7}
 8001796:	4770      	bx	lr

08001798 <io_init>:
	}
}


void io_init(void)
{
 8001798:	b580      	push	{r7, lr}
 800179a:	b082      	sub	sp, #8
 800179c:	af00      	add	r7, sp, #0
	for (io_e io = P0_2; io <= ARRAY_SIZE(io_initial_config);io++)
 800179e:	2302      	movs	r3, #2
 80017a0:	71fb      	strb	r3, [r7, #7]
 80017a2:	e00b      	b.n	80017bc <io_init+0x24>
	{
		io_config(io,&io_initial_config[io]);
 80017a4:	79fb      	ldrb	r3, [r7, #7]
 80017a6:	005b      	lsls	r3, r3, #1
 80017a8:	4a08      	ldr	r2, [pc, #32]	; (80017cc <io_init+0x34>)
 80017aa:	441a      	add	r2, r3
 80017ac:	79fb      	ldrb	r3, [r7, #7]
 80017ae:	4611      	mov	r1, r2
 80017b0:	4618      	mov	r0, r3
 80017b2:	f000 f80d 	bl	80017d0 <io_config>
	for (io_e io = P0_2; io <= ARRAY_SIZE(io_initial_config);io++)
 80017b6:	79fb      	ldrb	r3, [r7, #7]
 80017b8:	3301      	adds	r3, #1
 80017ba:	71fb      	strb	r3, [r7, #7]
 80017bc:	79fb      	ldrb	r3, [r7, #7]
 80017be:	2b30      	cmp	r3, #48	; 0x30
 80017c0:	d9f0      	bls.n	80017a4 <io_init+0xc>
	}
}
 80017c2:	bf00      	nop
 80017c4:	bf00      	nop
 80017c6:	3708      	adds	r7, #8
 80017c8:	46bd      	mov	sp, r7
 80017ca:	bd80      	pop	{r7, pc}
 80017cc:	200000dc 	.word	0x200000dc

080017d0 <io_config>:

void io_config(io_e io, io_configuration *config)
{
 80017d0:	b580      	push	{r7, lr}
 80017d2:	b082      	sub	sp, #8
 80017d4:	af00      	add	r7, sp, #0
 80017d6:	4603      	mov	r3, r0
 80017d8:	6039      	str	r1, [r7, #0]
 80017da:	71fb      	strb	r3, [r7, #7]
	io_set_io_mode(io,config->mode,config->config);
 80017dc:	683b      	ldr	r3, [r7, #0]
 80017de:	7819      	ldrb	r1, [r3, #0]
 80017e0:	683b      	ldr	r3, [r7, #0]
 80017e2:	785a      	ldrb	r2, [r3, #1]
 80017e4:	79fb      	ldrb	r3, [r7, #7]
 80017e6:	4618      	mov	r0, r3
 80017e8:	f000 f804 	bl	80017f4 <io_set_io_mode>
}
 80017ec:	bf00      	nop
 80017ee:	3708      	adds	r7, #8
 80017f0:	46bd      	mov	sp, r7
 80017f2:	bd80      	pop	{r7, pc}

080017f4 <io_set_io_mode>:

void io_set_io_mode(io_e io, io_mode_e mode, io_config_e config)
{
 80017f4:	b580      	push	{r7, lr}
 80017f6:	b084      	sub	sp, #16
 80017f8:	af00      	add	r7, sp, #0
 80017fa:	4603      	mov	r3, r0
 80017fc:	71fb      	strb	r3, [r7, #7]
 80017fe:	460b      	mov	r3, r1
 8001800:	71bb      	strb	r3, [r7, #6]
 8001802:	4613      	mov	r3, r2
 8001804:	717b      	strb	r3, [r7, #5]
	pin = io_pin_bit(io);
 8001806:	79fb      	ldrb	r3, [r7, #7]
 8001808:	4618      	mov	r0, r3
 800180a:	f7ff ffb7 	bl	800177c <io_pin_bit>
 800180e:	4603      	mov	r3, r0
 8001810:	461a      	mov	r2, r3
 8001812:	4b2c      	ldr	r3, [pc, #176]	; (80018c4 <io_set_io_mode+0xd0>)
 8001814:	701a      	strb	r2, [r3, #0]
	gpio_regdef_t *Port = (gpio_regdef_t*)(GPIO_BASEADDR + (io_port(io)*0x400));
 8001816:	79fb      	ldrb	r3, [r7, #7]
 8001818:	4618      	mov	r0, r3
 800181a:	f7ff ff9f 	bl	800175c <io_port>
 800181e:	4603      	mov	r3, r0
 8001820:	029b      	lsls	r3, r3, #10
 8001822:	f103 4380 	add.w	r3, r3, #1073741824	; 0x40000000
 8001826:	f503 3384 	add.w	r3, r3, #67584	; 0x10800
 800182a:	60fb      	str	r3, [r7, #12]
	if (pin < 8)
 800182c:	4b25      	ldr	r3, [pc, #148]	; (80018c4 <io_set_io_mode+0xd0>)
 800182e:	781b      	ldrb	r3, [r3, #0]
 8001830:	2b07      	cmp	r3, #7
 8001832:	d81e      	bhi.n	8001872 <io_set_io_mode+0x7e>
	{
		Port->CRL &= ~(0xF << PIN_MODE_MASK);
 8001834:	68fb      	ldr	r3, [r7, #12]
 8001836:	681b      	ldr	r3, [r3, #0]
 8001838:	4a22      	ldr	r2, [pc, #136]	; (80018c4 <io_set_io_mode+0xd0>)
 800183a:	7812      	ldrb	r2, [r2, #0]
 800183c:	0092      	lsls	r2, r2, #2
 800183e:	210f      	movs	r1, #15
 8001840:	fa01 f202 	lsl.w	r2, r1, r2
 8001844:	43d2      	mvns	r2, r2
 8001846:	401a      	ands	r2, r3
 8001848:	68fb      	ldr	r3, [r7, #12]
 800184a:	601a      	str	r2, [r3, #0]
		Port->CRL |= (mode << PIN_MODE_MASK) | (config << (PIN_MODE_MASK + 2));
 800184c:	68fb      	ldr	r3, [r7, #12]
 800184e:	681b      	ldr	r3, [r3, #0]
 8001850:	79b9      	ldrb	r1, [r7, #6]
 8001852:	4a1c      	ldr	r2, [pc, #112]	; (80018c4 <io_set_io_mode+0xd0>)
 8001854:	7812      	ldrb	r2, [r2, #0]
 8001856:	0092      	lsls	r2, r2, #2
 8001858:	4091      	lsls	r1, r2
 800185a:	7978      	ldrb	r0, [r7, #5]
 800185c:	4a19      	ldr	r2, [pc, #100]	; (80018c4 <io_set_io_mode+0xd0>)
 800185e:	7812      	ldrb	r2, [r2, #0]
 8001860:	0092      	lsls	r2, r2, #2
 8001862:	3202      	adds	r2, #2
 8001864:	fa00 f202 	lsl.w	r2, r0, r2
 8001868:	430a      	orrs	r2, r1
 800186a:	431a      	orrs	r2, r3
 800186c:	68fb      	ldr	r3, [r7, #12]
 800186e:	601a      	str	r2, [r3, #0]
	{
		pin %= 8;
		Port->CRH &= ~(0xF << PIN_MODE_MASK);
		Port->CRH |= (mode << PIN_MODE_MASK) | (config << (PIN_MODE_MASK+2));
	}
}
 8001870:	e024      	b.n	80018bc <io_set_io_mode+0xc8>
		pin %= 8;
 8001872:	4b14      	ldr	r3, [pc, #80]	; (80018c4 <io_set_io_mode+0xd0>)
 8001874:	781b      	ldrb	r3, [r3, #0]
 8001876:	f003 0307 	and.w	r3, r3, #7
 800187a:	b2da      	uxtb	r2, r3
 800187c:	4b11      	ldr	r3, [pc, #68]	; (80018c4 <io_set_io_mode+0xd0>)
 800187e:	701a      	strb	r2, [r3, #0]
		Port->CRH &= ~(0xF << PIN_MODE_MASK);
 8001880:	68fb      	ldr	r3, [r7, #12]
 8001882:	685b      	ldr	r3, [r3, #4]
 8001884:	4a0f      	ldr	r2, [pc, #60]	; (80018c4 <io_set_io_mode+0xd0>)
 8001886:	7812      	ldrb	r2, [r2, #0]
 8001888:	0092      	lsls	r2, r2, #2
 800188a:	210f      	movs	r1, #15
 800188c:	fa01 f202 	lsl.w	r2, r1, r2
 8001890:	43d2      	mvns	r2, r2
 8001892:	401a      	ands	r2, r3
 8001894:	68fb      	ldr	r3, [r7, #12]
 8001896:	605a      	str	r2, [r3, #4]
		Port->CRH |= (mode << PIN_MODE_MASK) | (config << (PIN_MODE_MASK+2));
 8001898:	68fb      	ldr	r3, [r7, #12]
 800189a:	685b      	ldr	r3, [r3, #4]
 800189c:	79b9      	ldrb	r1, [r7, #6]
 800189e:	4a09      	ldr	r2, [pc, #36]	; (80018c4 <io_set_io_mode+0xd0>)
 80018a0:	7812      	ldrb	r2, [r2, #0]
 80018a2:	0092      	lsls	r2, r2, #2
 80018a4:	4091      	lsls	r1, r2
 80018a6:	7978      	ldrb	r0, [r7, #5]
 80018a8:	4a06      	ldr	r2, [pc, #24]	; (80018c4 <io_set_io_mode+0xd0>)
 80018aa:	7812      	ldrb	r2, [r2, #0]
 80018ac:	0092      	lsls	r2, r2, #2
 80018ae:	3202      	adds	r2, #2
 80018b0:	fa00 f202 	lsl.w	r2, r0, r2
 80018b4:	430a      	orrs	r2, r1
 80018b6:	431a      	orrs	r2, r3
 80018b8:	68fb      	ldr	r3, [r7, #12]
 80018ba:	605a      	str	r2, [r3, #4]
}
 80018bc:	bf00      	nop
 80018be:	3710      	adds	r7, #16
 80018c0:	46bd      	mov	sp, r7
 80018c2:	bd80      	pop	{r7, pc}
 80018c4:	200001d9 	.word	0x200001d9

080018c8 <io_set_out>:



void io_set_out(io_e io, io_out_e out)
{
 80018c8:	b580      	push	{r7, lr}
 80018ca:	b084      	sub	sp, #16
 80018cc:	af00      	add	r7, sp, #0
 80018ce:	4603      	mov	r3, r0
 80018d0:	460a      	mov	r2, r1
 80018d2:	71fb      	strb	r3, [r7, #7]
 80018d4:	4613      	mov	r3, r2
 80018d6:	71bb      	strb	r3, [r7, #6]
	gpio_regdef_t *Port = (gpio_regdef_t*)(GPIO_BASEADDR + ( io_port(io) *0x400));
 80018d8:	79fb      	ldrb	r3, [r7, #7]
 80018da:	4618      	mov	r0, r3
 80018dc:	f7ff ff3e 	bl	800175c <io_port>
 80018e0:	4603      	mov	r3, r0
 80018e2:	029b      	lsls	r3, r3, #10
 80018e4:	f103 4380 	add.w	r3, r3, #1073741824	; 0x40000000
 80018e8:	f503 3384 	add.w	r3, r3, #67584	; 0x10800
 80018ec:	60fb      	str	r3, [r7, #12]
	switch(out){
 80018ee:	79bb      	ldrb	r3, [r7, #6]
 80018f0:	2b00      	cmp	r3, #0
 80018f2:	d010      	beq.n	8001916 <io_set_out+0x4e>
 80018f4:	2b01      	cmp	r3, #1
 80018f6:	d11d      	bne.n	8001934 <io_set_out+0x6c>
	case OUT_STATE_HIGH:
		Port->ODR &= ~(1 << io_pin_bit(io));
 80018f8:	79fb      	ldrb	r3, [r7, #7]
 80018fa:	4618      	mov	r0, r3
 80018fc:	f7ff ff3e 	bl	800177c <io_pin_bit>
 8001900:	4603      	mov	r3, r0
 8001902:	461a      	mov	r2, r3
 8001904:	2301      	movs	r3, #1
 8001906:	4093      	lsls	r3, r2
 8001908:	43da      	mvns	r2, r3
 800190a:	68fb      	ldr	r3, [r7, #12]
 800190c:	68db      	ldr	r3, [r3, #12]
 800190e:	401a      	ands	r2, r3
 8001910:	68fb      	ldr	r3, [r7, #12]
 8001912:	60da      	str	r2, [r3, #12]
		break;
 8001914:	e00e      	b.n	8001934 <io_set_out+0x6c>
	case OUT_STATE_LOW:
		Port->ODR |= (1 << io_pin_bit(io));
 8001916:	79fb      	ldrb	r3, [r7, #7]
 8001918:	4618      	mov	r0, r3
 800191a:	f7ff ff2f 	bl	800177c <io_pin_bit>
 800191e:	4603      	mov	r3, r0
 8001920:	461a      	mov	r2, r3
 8001922:	2301      	movs	r3, #1
 8001924:	fa03 f202 	lsl.w	r2, r3, r2
 8001928:	68fb      	ldr	r3, [r7, #12]
 800192a:	68db      	ldr	r3, [r3, #12]
 800192c:	431a      	orrs	r2, r3
 800192e:	68fb      	ldr	r3, [r7, #12]
 8001930:	60da      	str	r2, [r3, #12]
		break;
 8001932:	bf00      	nop
	}
}
 8001934:	bf00      	nop
 8001936:	3710      	adds	r7, #16
 8001938:	46bd      	mov	sp, r7
 800193a:	bd80      	pop	{r7, pc}

0800193c <EXTI4_IRQHandler>:
	return (Port->IDR & (1 << io_pin_bit(io)));
}


void EXTI4_IRQHandler(void)
{
 800193c:	b580      	push	{r7, lr}
 800193e:	af00      	add	r7, sp, #0
	if (EXTI->PR & (1 << 4))
 8001940:	4b10      	ldr	r3, [pc, #64]	; (8001984 <EXTI4_IRQHandler+0x48>)
 8001942:	695b      	ldr	r3, [r3, #20]
 8001944:	f003 0310 	and.w	r3, r3, #16
 8001948:	2b00      	cmp	r3, #0
 800194a:	d018      	beq.n	800197e <EXTI4_IRQHandler+0x42>
	{
		EXTI->PR |= (1 << 4);
 800194c:	4b0d      	ldr	r3, [pc, #52]	; (8001984 <EXTI4_IRQHandler+0x48>)
 800194e:	695b      	ldr	r3, [r3, #20]
 8001950:	4a0c      	ldr	r2, [pc, #48]	; (8001984 <EXTI4_IRQHandler+0x48>)
 8001952:	f043 0310 	orr.w	r3, r3, #16
 8001956:	6153      	str	r3, [r2, #20]
		if (!flag_led_on)
 8001958:	4b0b      	ldr	r3, [pc, #44]	; (8001988 <EXTI4_IRQHandler+0x4c>)
 800195a:	781b      	ldrb	r3, [r3, #0]
 800195c:	2b00      	cmp	r3, #0
 800195e:	d107      	bne.n	8001970 <EXTI4_IRQHandler+0x34>
		{
			LED_ON();
 8001960:	2100      	movs	r1, #0
 8001962:	202d      	movs	r0, #45	; 0x2d
 8001964:	f7ff ffb0 	bl	80018c8 <io_set_out>
			flag_led_on = 1;
 8001968:	4b07      	ldr	r3, [pc, #28]	; (8001988 <EXTI4_IRQHandler+0x4c>)
 800196a:	2201      	movs	r2, #1
 800196c:	701a      	strb	r2, [r3, #0]
		{
			LED_OFF();
			flag_led_on = 0;
		}
	}
}
 800196e:	e006      	b.n	800197e <EXTI4_IRQHandler+0x42>
			LED_OFF();
 8001970:	2101      	movs	r1, #1
 8001972:	202d      	movs	r0, #45	; 0x2d
 8001974:	f7ff ffa8 	bl	80018c8 <io_set_out>
			flag_led_on = 0;
 8001978:	4b03      	ldr	r3, [pc, #12]	; (8001988 <EXTI4_IRQHandler+0x4c>)
 800197a:	2200      	movs	r2, #0
 800197c:	701a      	strb	r2, [r3, #0]
}
 800197e:	bf00      	nop
 8001980:	bd80      	pop	{r7, pc}
 8001982:	bf00      	nop
 8001984:	40010400 	.word	0x40010400
 8001988:	200001d8 	.word	0x200001d8

0800198c <i2cx_init>:
#define I2C_CR1_STP   (1 << 9)
#define I2C_SR1_TXE	  (1 << 7)
#define I2C_SR1_RXNE  (1 << 6)

void i2cx_init(i2cx_regdef_t *p_i2cx, uint8_t channel)
{
 800198c:	b580      	push	{r7, lr}
 800198e:	b082      	sub	sp, #8
 8001990:	af00      	add	r7, sp, #0
 8001992:	6078      	str	r0, [r7, #4]
 8001994:	460b      	mov	r3, r1
 8001996:	70fb      	strb	r3, [r7, #3]
	i2cx_reset(p_i2cx);
 8001998:	6878      	ldr	r0, [r7, #4]
 800199a:	f000 faeb 	bl	8001f74 <i2cx_reset>
	// Master mode selection
	if (i2c_channel[channel].master_mode)
 800199e:	78fa      	ldrb	r2, [r7, #3]
 80019a0:	497c      	ldr	r1, [pc, #496]	; (8001b94 <i2cx_init+0x208>)
 80019a2:	4613      	mov	r3, r2
 80019a4:	009b      	lsls	r3, r3, #2
 80019a6:	4413      	add	r3, r2
 80019a8:	009b      	lsls	r3, r3, #2
 80019aa:	440b      	add	r3, r1
 80019ac:	781b      	ldrb	r3, [r3, #0]
 80019ae:	2b00      	cmp	r3, #0
 80019b0:	d00f      	beq.n	80019d2 <i2cx_init+0x46>
		p_i2cx->CCR |= i2c_channel[channel].master_mode << MASTER_MODE_SELECTION_BIT_POSITION_CCR;
 80019b2:	687b      	ldr	r3, [r7, #4]
 80019b4:	69d9      	ldr	r1, [r3, #28]
 80019b6:	78fa      	ldrb	r2, [r7, #3]
 80019b8:	4876      	ldr	r0, [pc, #472]	; (8001b94 <i2cx_init+0x208>)
 80019ba:	4613      	mov	r3, r2
 80019bc:	009b      	lsls	r3, r3, #2
 80019be:	4413      	add	r3, r2
 80019c0:	009b      	lsls	r3, r3, #2
 80019c2:	4403      	add	r3, r0
 80019c4:	781b      	ldrb	r3, [r3, #0]
 80019c6:	03db      	lsls	r3, r3, #15
 80019c8:	ea41 0203 	orr.w	r2, r1, r3
 80019cc:	687b      	ldr	r3, [r7, #4]
 80019ce:	61da      	str	r2, [r3, #28]
 80019d0:	e005      	b.n	80019de <i2cx_init+0x52>
	else
		p_i2cx->CCR &= ~(1 << MASTER_MODE_SELECTION_BIT_POSITION_CCR);
 80019d2:	687b      	ldr	r3, [r7, #4]
 80019d4:	69db      	ldr	r3, [r3, #28]
 80019d6:	f423 4200 	bic.w	r2, r3, #32768	; 0x8000
 80019da:	687b      	ldr	r3, [r7, #4]
 80019dc:	61da      	str	r2, [r3, #28]

	// DMA Mode selection
	if (i2c_channel[channel].dma_en_di)
 80019de:	78fa      	ldrb	r2, [r7, #3]
 80019e0:	496c      	ldr	r1, [pc, #432]	; (8001b94 <i2cx_init+0x208>)
 80019e2:	4613      	mov	r3, r2
 80019e4:	009b      	lsls	r3, r3, #2
 80019e6:	4413      	add	r3, r2
 80019e8:	009b      	lsls	r3, r3, #2
 80019ea:	440b      	add	r3, r1
 80019ec:	3301      	adds	r3, #1
 80019ee:	781b      	ldrb	r3, [r3, #0]
 80019f0:	2b00      	cmp	r3, #0
 80019f2:	d010      	beq.n	8001a16 <i2cx_init+0x8a>
		p_i2cx->CR2 |= i2c_channel[channel].dma_en_di << DMA_EN_BI_POSITION_CR2;
 80019f4:	687b      	ldr	r3, [r7, #4]
 80019f6:	6859      	ldr	r1, [r3, #4]
 80019f8:	78fa      	ldrb	r2, [r7, #3]
 80019fa:	4866      	ldr	r0, [pc, #408]	; (8001b94 <i2cx_init+0x208>)
 80019fc:	4613      	mov	r3, r2
 80019fe:	009b      	lsls	r3, r3, #2
 8001a00:	4413      	add	r3, r2
 8001a02:	009b      	lsls	r3, r3, #2
 8001a04:	4403      	add	r3, r0
 8001a06:	3301      	adds	r3, #1
 8001a08:	781b      	ldrb	r3, [r3, #0]
 8001a0a:	02db      	lsls	r3, r3, #11
 8001a0c:	ea41 0203 	orr.w	r2, r1, r3
 8001a10:	687b      	ldr	r3, [r7, #4]
 8001a12:	605a      	str	r2, [r3, #4]
 8001a14:	e005      	b.n	8001a22 <i2cx_init+0x96>
	else
		p_i2cx->CR2 &= ~(1 << DMA_EN_BI_POSITION_CR2);
 8001a16:	687b      	ldr	r3, [r7, #4]
 8001a18:	685b      	ldr	r3, [r3, #4]
 8001a1a:	f423 6200 	bic.w	r2, r3, #2048	; 0x800
 8001a1e:	687b      	ldr	r3, [r7, #4]
 8001a20:	605a      	str	r2, [r3, #4]

	//buffer interrupt en or di
	if (i2c_channel[channel].it_buf_en)
 8001a22:	78fa      	ldrb	r2, [r7, #3]
 8001a24:	495b      	ldr	r1, [pc, #364]	; (8001b94 <i2cx_init+0x208>)
 8001a26:	4613      	mov	r3, r2
 8001a28:	009b      	lsls	r3, r3, #2
 8001a2a:	4413      	add	r3, r2
 8001a2c:	009b      	lsls	r3, r3, #2
 8001a2e:	440b      	add	r3, r1
 8001a30:	3302      	adds	r3, #2
 8001a32:	781b      	ldrb	r3, [r3, #0]
 8001a34:	2b00      	cmp	r3, #0
 8001a36:	d010      	beq.n	8001a5a <i2cx_init+0xce>
		p_i2cx->CR2 |= i2c_channel[channel].it_buf_en << IT_BUF_EN_BIT_POSTITION_CR2;
 8001a38:	687b      	ldr	r3, [r7, #4]
 8001a3a:	6859      	ldr	r1, [r3, #4]
 8001a3c:	78fa      	ldrb	r2, [r7, #3]
 8001a3e:	4855      	ldr	r0, [pc, #340]	; (8001b94 <i2cx_init+0x208>)
 8001a40:	4613      	mov	r3, r2
 8001a42:	009b      	lsls	r3, r3, #2
 8001a44:	4413      	add	r3, r2
 8001a46:	009b      	lsls	r3, r3, #2
 8001a48:	4403      	add	r3, r0
 8001a4a:	3302      	adds	r3, #2
 8001a4c:	781b      	ldrb	r3, [r3, #0]
 8001a4e:	029b      	lsls	r3, r3, #10
 8001a50:	ea41 0203 	orr.w	r2, r1, r3
 8001a54:	687b      	ldr	r3, [r7, #4]
 8001a56:	605a      	str	r2, [r3, #4]
 8001a58:	e005      	b.n	8001a66 <i2cx_init+0xda>
	else
		p_i2cx->CR2 &= ~(1 << IT_BUF_EN_BIT_POSTITION_CR2);
 8001a5a:	687b      	ldr	r3, [r7, #4]
 8001a5c:	685b      	ldr	r3, [r3, #4]
 8001a5e:	f423 6280 	bic.w	r2, r3, #1024	; 0x400
 8001a62:	687b      	ldr	r3, [r7, #4]
 8001a64:	605a      	str	r2, [r3, #4]

	//Event interrupt en or di
	if (i2c_channel[channel].it_evt_en)
 8001a66:	78fa      	ldrb	r2, [r7, #3]
 8001a68:	494a      	ldr	r1, [pc, #296]	; (8001b94 <i2cx_init+0x208>)
 8001a6a:	4613      	mov	r3, r2
 8001a6c:	009b      	lsls	r3, r3, #2
 8001a6e:	4413      	add	r3, r2
 8001a70:	009b      	lsls	r3, r3, #2
 8001a72:	440b      	add	r3, r1
 8001a74:	3303      	adds	r3, #3
 8001a76:	781b      	ldrb	r3, [r3, #0]
 8001a78:	2b00      	cmp	r3, #0
 8001a7a:	d010      	beq.n	8001a9e <i2cx_init+0x112>
			p_i2cx->CR2 |= i2c_channel[channel].it_evt_en << IT_EVT_EN_BIT_POSTITION_CR2;
 8001a7c:	687b      	ldr	r3, [r7, #4]
 8001a7e:	6859      	ldr	r1, [r3, #4]
 8001a80:	78fa      	ldrb	r2, [r7, #3]
 8001a82:	4844      	ldr	r0, [pc, #272]	; (8001b94 <i2cx_init+0x208>)
 8001a84:	4613      	mov	r3, r2
 8001a86:	009b      	lsls	r3, r3, #2
 8001a88:	4413      	add	r3, r2
 8001a8a:	009b      	lsls	r3, r3, #2
 8001a8c:	4403      	add	r3, r0
 8001a8e:	3303      	adds	r3, #3
 8001a90:	781b      	ldrb	r3, [r3, #0]
 8001a92:	025b      	lsls	r3, r3, #9
 8001a94:	ea41 0203 	orr.w	r2, r1, r3
 8001a98:	687b      	ldr	r3, [r7, #4]
 8001a9a:	605a      	str	r2, [r3, #4]
 8001a9c:	e005      	b.n	8001aaa <i2cx_init+0x11e>
		else
			p_i2cx->CR2 &= ~(1 << IT_EVT_EN_BIT_POSTITION_CR2);
 8001a9e:	687b      	ldr	r3, [r7, #4]
 8001aa0:	685b      	ldr	r3, [r3, #4]
 8001aa2:	f423 7200 	bic.w	r2, r3, #512	; 0x200
 8001aa6:	687b      	ldr	r3, [r7, #4]
 8001aa8:	605a      	str	r2, [r3, #4]

	//error interrupt en or di
	if (i2c_channel[channel].it_err_en)
 8001aaa:	78fa      	ldrb	r2, [r7, #3]
 8001aac:	4939      	ldr	r1, [pc, #228]	; (8001b94 <i2cx_init+0x208>)
 8001aae:	4613      	mov	r3, r2
 8001ab0:	009b      	lsls	r3, r3, #2
 8001ab2:	4413      	add	r3, r2
 8001ab4:	009b      	lsls	r3, r3, #2
 8001ab6:	440b      	add	r3, r1
 8001ab8:	3304      	adds	r3, #4
 8001aba:	781b      	ldrb	r3, [r3, #0]
 8001abc:	2b00      	cmp	r3, #0
 8001abe:	d010      	beq.n	8001ae2 <i2cx_init+0x156>
			p_i2cx->CR2 |= i2c_channel[channel].it_err_en << IT_ERR_EN_BIT_POSTITION_CR2;
 8001ac0:	687b      	ldr	r3, [r7, #4]
 8001ac2:	6859      	ldr	r1, [r3, #4]
 8001ac4:	78fa      	ldrb	r2, [r7, #3]
 8001ac6:	4833      	ldr	r0, [pc, #204]	; (8001b94 <i2cx_init+0x208>)
 8001ac8:	4613      	mov	r3, r2
 8001aca:	009b      	lsls	r3, r3, #2
 8001acc:	4413      	add	r3, r2
 8001ace:	009b      	lsls	r3, r3, #2
 8001ad0:	4403      	add	r3, r0
 8001ad2:	3304      	adds	r3, #4
 8001ad4:	781b      	ldrb	r3, [r3, #0]
 8001ad6:	021b      	lsls	r3, r3, #8
 8001ad8:	ea41 0203 	orr.w	r2, r1, r3
 8001adc:	687b      	ldr	r3, [r7, #4]
 8001ade:	605a      	str	r2, [r3, #4]
 8001ae0:	e005      	b.n	8001aee <i2cx_init+0x162>
		else
			p_i2cx->CR2 &= ~(1 << IT_ERR_EN_BIT_POSTITION_CR2);
 8001ae2:	687b      	ldr	r3, [r7, #4]
 8001ae4:	685b      	ldr	r3, [r3, #4]
 8001ae6:	f423 7280 	bic.w	r2, r3, #256	; 0x100
 8001aea:	687b      	ldr	r3, [r7, #4]
 8001aec:	605a      	str	r2, [r3, #4]

	//peripheral clock Frequency
	p_i2cx->CR2 |= i2c_channel[channel].peripheral_clock_freq;
 8001aee:	687b      	ldr	r3, [r7, #4]
 8001af0:	6859      	ldr	r1, [r3, #4]
 8001af2:	78fa      	ldrb	r2, [r7, #3]
 8001af4:	4827      	ldr	r0, [pc, #156]	; (8001b94 <i2cx_init+0x208>)
 8001af6:	4613      	mov	r3, r2
 8001af8:	009b      	lsls	r3, r3, #2
 8001afa:	4413      	add	r3, r2
 8001afc:	009b      	lsls	r3, r3, #2
 8001afe:	4403      	add	r3, r0
 8001b00:	3305      	adds	r3, #5
 8001b02:	781b      	ldrb	r3, [r3, #0]
 8001b04:	ea41 0203 	orr.w	r2, r1, r3
 8001b08:	687b      	ldr	r3, [r7, #4]
 8001b0a:	605a      	str	r2, [r3, #4]

	// CCR value. Must be configured when I2C is disbaled.
	p_i2cx->CCR |= i2c_channel[channel].ccr;
 8001b0c:	687b      	ldr	r3, [r7, #4]
 8001b0e:	69d9      	ldr	r1, [r3, #28]
 8001b10:	78fa      	ldrb	r2, [r7, #3]
 8001b12:	4820      	ldr	r0, [pc, #128]	; (8001b94 <i2cx_init+0x208>)
 8001b14:	4613      	mov	r3, r2
 8001b16:	009b      	lsls	r3, r3, #2
 8001b18:	4413      	add	r3, r2
 8001b1a:	009b      	lsls	r3, r3, #2
 8001b1c:	4403      	add	r3, r0
 8001b1e:	3308      	adds	r3, #8
 8001b20:	681b      	ldr	r3, [r3, #0]
 8001b22:	ea41 0203 	orr.w	r2, r1, r3
 8001b26:	687b      	ldr	r3, [r7, #4]
 8001b28:	61da      	str	r2, [r3, #28]

	// FM duty cycle
	if (i2c_channel[channel].fm_duty_cycle)
 8001b2a:	78fa      	ldrb	r2, [r7, #3]
 8001b2c:	4919      	ldr	r1, [pc, #100]	; (8001b94 <i2cx_init+0x208>)
 8001b2e:	4613      	mov	r3, r2
 8001b30:	009b      	lsls	r3, r3, #2
 8001b32:	4413      	add	r3, r2
 8001b34:	009b      	lsls	r3, r3, #2
 8001b36:	440b      	add	r3, r1
 8001b38:	330c      	adds	r3, #12
 8001b3a:	781b      	ldrb	r3, [r3, #0]
 8001b3c:	2b00      	cmp	r3, #0
 8001b3e:	d006      	beq.n	8001b4e <i2cx_init+0x1c2>
		p_i2cx->CCR |= (FM_DUTY_CYCLE_16_9 << FM_DUTY_CYCLE_BIT_POSITION_CRR);
 8001b40:	687b      	ldr	r3, [r7, #4]
 8001b42:	69db      	ldr	r3, [r3, #28]
 8001b44:	f443 4280 	orr.w	r2, r3, #16384	; 0x4000
 8001b48:	687b      	ldr	r3, [r7, #4]
 8001b4a:	61da      	str	r2, [r3, #28]
 8001b4c:	e005      	b.n	8001b5a <i2cx_init+0x1ce>
	else
		p_i2cx->CCR &= ~(1 << FM_DUTY_CYCLE_BIT_POSITION_CRR);
 8001b4e:	687b      	ldr	r3, [r7, #4]
 8001b50:	69db      	ldr	r3, [r3, #28]
 8001b52:	f423 4280 	bic.w	r2, r3, #16384	; 0x4000
 8001b56:	687b      	ldr	r3, [r7, #4]
 8001b58:	61da      	str	r2, [r3, #28]

	// Trise value
	p_i2cx->TRISE |= i2c_channel[channel].trise;
 8001b5a:	687b      	ldr	r3, [r7, #4]
 8001b5c:	6a19      	ldr	r1, [r3, #32]
 8001b5e:	78fa      	ldrb	r2, [r7, #3]
 8001b60:	480c      	ldr	r0, [pc, #48]	; (8001b94 <i2cx_init+0x208>)
 8001b62:	4613      	mov	r3, r2
 8001b64:	009b      	lsls	r3, r3, #2
 8001b66:	4413      	add	r3, r2
 8001b68:	009b      	lsls	r3, r3, #2
 8001b6a:	4403      	add	r3, r0
 8001b6c:	3310      	adds	r3, #16
 8001b6e:	681b      	ldr	r3, [r3, #0]
 8001b70:	ea41 0203 	orr.w	r2, r1, r3
 8001b74:	687b      	ldr	r3, [r7, #4]
 8001b76:	621a      	str	r2, [r3, #32]

	// enable the start bit set interrupt. control bit --> ITEVFEN, event flag SB.
	i2cx_en(p_i2cx);
 8001b78:	6878      	ldr	r0, [r7, #4]
 8001b7a:	f000 f888 	bl	8001c8e <i2cx_en>
	i2c_ack_en(p_i2cx);
 8001b7e:	6878      	ldr	r0, [r7, #4]
 8001b80:	f000 f858 	bl	8001c34 <i2c_ack_en>
	nvic_en_irq(I2C2_EV_IRQn);
 8001b84:	2021      	movs	r0, #33	; 0x21
 8001b86:	f000 fa11 	bl	8001fac <nvic_en_irq>
}
 8001b8a:	bf00      	nop
 8001b8c:	3708      	adds	r7, #8
 8001b8e:	46bd      	mov	sp, r7
 8001b90:	bd80      	pop	{r7, pc}
 8001b92:	bf00      	nop
 8001b94:	2000013c 	.word	0x2000013c

08001b98 <write_7_bit_device_address>:
		I2C2->CR1 |= (1 << START_CONDITION_BIT_POSITION_CR1);

}

void write_7_bit_device_address(i2cx_regdef_t *p_i2cx, uint8_t address,uint8_t dir)
{
 8001b98:	b480      	push	{r7}
 8001b9a:	b083      	sub	sp, #12
 8001b9c:	af00      	add	r7, sp, #0
 8001b9e:	6078      	str	r0, [r7, #4]
 8001ba0:	460b      	mov	r3, r1
 8001ba2:	70fb      	strb	r3, [r7, #3]
 8001ba4:	4613      	mov	r3, r2
 8001ba6:	70bb      	strb	r3, [r7, #2]
	p_i2cx->DR = (address | dir);
 8001ba8:	78fa      	ldrb	r2, [r7, #3]
 8001baa:	78bb      	ldrb	r3, [r7, #2]
 8001bac:	4313      	orrs	r3, r2
 8001bae:	b2db      	uxtb	r3, r3
 8001bb0:	461a      	mov	r2, r3
 8001bb2:	687b      	ldr	r3, [r7, #4]
 8001bb4:	611a      	str	r2, [r3, #16]
}
 8001bb6:	bf00      	nop
 8001bb8:	370c      	adds	r7, #12
 8001bba:	46bd      	mov	sp, r7
 8001bbc:	bc80      	pop	{r7}
 8001bbe:	4770      	bx	lr

08001bc0 <send_stop>:
	p_i2cx->DR = *buffer;
}


void send_stop(i2cx_regdef_t *p_i2cx)
{
 8001bc0:	b480      	push	{r7}
 8001bc2:	b083      	sub	sp, #12
 8001bc4:	af00      	add	r7, sp, #0
 8001bc6:	6078      	str	r0, [r7, #4]
	I2C2->CR1 |= I2C_CR1_STP;
 8001bc8:	4b05      	ldr	r3, [pc, #20]	; (8001be0 <send_stop+0x20>)
 8001bca:	681b      	ldr	r3, [r3, #0]
 8001bcc:	4a04      	ldr	r2, [pc, #16]	; (8001be0 <send_stop+0x20>)
 8001bce:	f443 7300 	orr.w	r3, r3, #512	; 0x200
 8001bd2:	6013      	str	r3, [r2, #0]
}
 8001bd4:	bf00      	nop
 8001bd6:	370c      	adds	r7, #12
 8001bd8:	46bd      	mov	sp, r7
 8001bda:	bc80      	pop	{r7}
 8001bdc:	4770      	bx	lr
 8001bde:	bf00      	nop
 8001be0:	40005800 	.word	0x40005800

08001be4 <get_flag_status_sr1>:
	while(!get_flag_status_sr1(p_i2cx,FLAG_BTF_SR1));
	send_stop(p_i2cx);
}

uint8_t get_flag_status_sr1(i2cx_regdef_t *p_i2cx, uint8_t flag)
{
 8001be4:	b480      	push	{r7}
 8001be6:	b083      	sub	sp, #12
 8001be8:	af00      	add	r7, sp, #0
 8001bea:	6078      	str	r0, [r7, #4]
 8001bec:	460b      	mov	r3, r1
 8001bee:	70fb      	strb	r3, [r7, #3]

	if (p_i2cx->SR1 & flag)
 8001bf0:	687b      	ldr	r3, [r7, #4]
 8001bf2:	695a      	ldr	r2, [r3, #20]
 8001bf4:	78fb      	ldrb	r3, [r7, #3]
 8001bf6:	4013      	ands	r3, r2
 8001bf8:	2b00      	cmp	r3, #0
 8001bfa:	d001      	beq.n	8001c00 <get_flag_status_sr1+0x1c>
	{
		return 1;
 8001bfc:	2301      	movs	r3, #1
 8001bfe:	e000      	b.n	8001c02 <get_flag_status_sr1+0x1e>
	}
	else
	{
		return 0;
 8001c00:	2300      	movs	r3, #0
	}
}
 8001c02:	4618      	mov	r0, r3
 8001c04:	370c      	adds	r7, #12
 8001c06:	46bd      	mov	sp, r7
 8001c08:	bc80      	pop	{r7}
 8001c0a:	4770      	bx	lr

08001c0c <get_flag_status_sr2>:

uint8_t get_flag_status_sr2(i2cx_regdef_t *p_i2cx, uint8_t flag)
{
 8001c0c:	b480      	push	{r7}
 8001c0e:	b083      	sub	sp, #12
 8001c10:	af00      	add	r7, sp, #0
 8001c12:	6078      	str	r0, [r7, #4]
 8001c14:	460b      	mov	r3, r1
 8001c16:	70fb      	strb	r3, [r7, #3]

	if (p_i2cx->SR2 & flag)
 8001c18:	687b      	ldr	r3, [r7, #4]
 8001c1a:	699a      	ldr	r2, [r3, #24]
 8001c1c:	78fb      	ldrb	r3, [r7, #3]
 8001c1e:	4013      	ands	r3, r2
 8001c20:	2b00      	cmp	r3, #0
 8001c22:	d001      	beq.n	8001c28 <get_flag_status_sr2+0x1c>
	{
		return 1;
 8001c24:	2301      	movs	r3, #1
 8001c26:	e000      	b.n	8001c2a <get_flag_status_sr2+0x1e>
	}
	else
	{
		return 0;
 8001c28:	2300      	movs	r3, #0
	}
}
 8001c2a:	4618      	mov	r0, r3
 8001c2c:	370c      	adds	r7, #12
 8001c2e:	46bd      	mov	sp, r7
 8001c30:	bc80      	pop	{r7}
 8001c32:	4770      	bx	lr

08001c34 <i2c_ack_en>:

void i2c_ack_en(i2cx_regdef_t *p_i2cx)
{
 8001c34:	b480      	push	{r7}
 8001c36:	b083      	sub	sp, #12
 8001c38:	af00      	add	r7, sp, #0
 8001c3a:	6078      	str	r0, [r7, #4]
	p_i2cx->CR1 |= (1 << ACK_BIT_POSITION_CR1);
 8001c3c:	687b      	ldr	r3, [r7, #4]
 8001c3e:	681b      	ldr	r3, [r3, #0]
 8001c40:	f443 6280 	orr.w	r2, r3, #1024	; 0x400
 8001c44:	687b      	ldr	r3, [r7, #4]
 8001c46:	601a      	str	r2, [r3, #0]
}
 8001c48:	bf00      	nop
 8001c4a:	370c      	adds	r7, #12
 8001c4c:	46bd      	mov	sp, r7
 8001c4e:	bc80      	pop	{r7}
 8001c50:	4770      	bx	lr

08001c52 <i2c_ack_di>:

void i2c_ack_di(i2cx_regdef_t *p_i2cx)
{
 8001c52:	b480      	push	{r7}
 8001c54:	b083      	sub	sp, #12
 8001c56:	af00      	add	r7, sp, #0
 8001c58:	6078      	str	r0, [r7, #4]
	p_i2cx->CR1 &= ~(1 << ACK_BIT_POSITION_CR1);
 8001c5a:	687b      	ldr	r3, [r7, #4]
 8001c5c:	681b      	ldr	r3, [r3, #0]
 8001c5e:	f423 6280 	bic.w	r2, r3, #1024	; 0x400
 8001c62:	687b      	ldr	r3, [r7, #4]
 8001c64:	601a      	str	r2, [r3, #0]
}
 8001c66:	bf00      	nop
 8001c68:	370c      	adds	r7, #12
 8001c6a:	46bd      	mov	sp, r7
 8001c6c:	bc80      	pop	{r7}
 8001c6e:	4770      	bx	lr

08001c70 <clear_addr_bit>:

void clear_addr_bit(i2cx_regdef_t *p_i2cx)
{
 8001c70:	b480      	push	{r7}
 8001c72:	b085      	sub	sp, #20
 8001c74:	af00      	add	r7, sp, #0
 8001c76:	6078      	str	r0, [r7, #4]
	uint32_t temp;
	temp = p_i2cx->SR1;
 8001c78:	687b      	ldr	r3, [r7, #4]
 8001c7a:	695b      	ldr	r3, [r3, #20]
 8001c7c:	60fb      	str	r3, [r7, #12]
	temp = p_i2cx->SR2;
 8001c7e:	687b      	ldr	r3, [r7, #4]
 8001c80:	699b      	ldr	r3, [r3, #24]
 8001c82:	60fb      	str	r3, [r7, #12]
}
 8001c84:	bf00      	nop
 8001c86:	3714      	adds	r7, #20
 8001c88:	46bd      	mov	sp, r7
 8001c8a:	bc80      	pop	{r7}
 8001c8c:	4770      	bx	lr

08001c8e <i2cx_en>:
{
	return p_i2cx->DR;
}

void i2cx_en(i2cx_regdef_t *p_i2cx)
{
 8001c8e:	b480      	push	{r7}
 8001c90:	b083      	sub	sp, #12
 8001c92:	af00      	add	r7, sp, #0
 8001c94:	6078      	str	r0, [r7, #4]
	p_i2cx->CR1 |= (1 << PERIPHERAL_EN_BIT_POSITION_CR1);
 8001c96:	687b      	ldr	r3, [r7, #4]
 8001c98:	681b      	ldr	r3, [r3, #0]
 8001c9a:	f043 0201 	orr.w	r2, r3, #1
 8001c9e:	687b      	ldr	r3, [r7, #4]
 8001ca0:	601a      	str	r2, [r3, #0]
}
 8001ca2:	bf00      	nop
 8001ca4:	370c      	adds	r7, #12
 8001ca6:	46bd      	mov	sp, r7
 8001ca8:	bc80      	pop	{r7}
 8001caa:	4770      	bx	lr

08001cac <send_repeated_start>:
{
	p_i2cx->CR1 &= ~(1 << PERIPHERAL_EN_BIT_POSITION_CR1);
}

void send_repeated_start(i2cx_regdef_t *p_i2cx)
{
 8001cac:	b480      	push	{r7}
 8001cae:	b083      	sub	sp, #12
 8001cb0:	af00      	add	r7, sp, #0
 8001cb2:	6078      	str	r0, [r7, #4]
	I2C2->CR1 |= (1 << START_CONDITION_BIT_POSITION_CR1);
 8001cb4:	4b05      	ldr	r3, [pc, #20]	; (8001ccc <send_repeated_start+0x20>)
 8001cb6:	681b      	ldr	r3, [r3, #0]
 8001cb8:	4a04      	ldr	r2, [pc, #16]	; (8001ccc <send_repeated_start+0x20>)
 8001cba:	f443 7380 	orr.w	r3, r3, #256	; 0x100
 8001cbe:	6013      	str	r3, [r2, #0]
	//while(!(I2C2->SR1 & I2C_SR1_SB)){;}
}
 8001cc0:	bf00      	nop
 8001cc2:	370c      	adds	r7, #12
 8001cc4:	46bd      	mov	sp, r7
 8001cc6:	bc80      	pop	{r7}
 8001cc8:	4770      	bx	lr
 8001cca:	bf00      	nop
 8001ccc:	40005800 	.word	0x40005800

08001cd0 <I2C2_EV_IRQHandler>:
	while(!get_flag_status_sr1(p_i2cx,flag));
}


void I2C2_EV_IRQHandler(void)
{
 8001cd0:	b580      	push	{r7, lr}
 8001cd2:	b082      	sub	sp, #8
 8001cd4:	af00      	add	r7, sp, #0
	uint32_t temp;
	if (I2C2->CR2 & (1 << 9))
 8001cd6:	4b35      	ldr	r3, [pc, #212]	; (8001dac <I2C2_EV_IRQHandler+0xdc>)
 8001cd8:	685b      	ldr	r3, [r3, #4]
 8001cda:	f403 7300 	and.w	r3, r3, #512	; 0x200
 8001cde:	2b00      	cmp	r3, #0
 8001ce0:	d057      	beq.n	8001d92 <I2C2_EV_IRQHandler+0xc2>
	{
		if (get_flag_status_sr1(I2C2,FLAG_SB_SR1) == 1)
 8001ce2:	2101      	movs	r1, #1
 8001ce4:	4831      	ldr	r0, [pc, #196]	; (8001dac <I2C2_EV_IRQHandler+0xdc>)
 8001ce6:	f7ff ff7d 	bl	8001be4 <get_flag_status_sr1>
 8001cea:	4603      	mov	r3, r0
 8001cec:	2b01      	cmp	r3, #1
 8001cee:	d115      	bne.n	8001d1c <I2C2_EV_IRQHandler+0x4c>
		{
			temp = I2C2->SR1;
 8001cf0:	4b2e      	ldr	r3, [pc, #184]	; (8001dac <I2C2_EV_IRQHandler+0xdc>)
 8001cf2:	695b      	ldr	r3, [r3, #20]
 8001cf4:	607b      	str	r3, [r7, #4]
			if (flag_send_write_address)
 8001cf6:	4b2e      	ldr	r3, [pc, #184]	; (8001db0 <I2C2_EV_IRQHandler+0xe0>)
 8001cf8:	781b      	ldrb	r3, [r3, #0]
 8001cfa:	2b00      	cmp	r3, #0
 8001cfc:	d005      	beq.n	8001d0a <I2C2_EV_IRQHandler+0x3a>
			{
				write_7_bit_device_address(I2C2,EEPROM_DEVICE_ADDRESS,WRITE);
 8001cfe:	2200      	movs	r2, #0
 8001d00:	21a0      	movs	r1, #160	; 0xa0
 8001d02:	482a      	ldr	r0, [pc, #168]	; (8001dac <I2C2_EV_IRQHandler+0xdc>)
 8001d04:	f7ff ff48 	bl	8001b98 <write_7_bit_device_address>
 8001d08:	e008      	b.n	8001d1c <I2C2_EV_IRQHandler+0x4c>
			}
			else if(!flag_send_write_address)
 8001d0a:	4b29      	ldr	r3, [pc, #164]	; (8001db0 <I2C2_EV_IRQHandler+0xe0>)
 8001d0c:	781b      	ldrb	r3, [r3, #0]
 8001d0e:	2b00      	cmp	r3, #0
 8001d10:	d104      	bne.n	8001d1c <I2C2_EV_IRQHandler+0x4c>
			{
				write_7_bit_device_address(I2C2,EEPROM_DEVICE_ADDRESS,READ);
 8001d12:	2201      	movs	r2, #1
 8001d14:	21a0      	movs	r1, #160	; 0xa0
 8001d16:	4825      	ldr	r0, [pc, #148]	; (8001dac <I2C2_EV_IRQHandler+0xdc>)
 8001d18:	f7ff ff3e 	bl	8001b98 <write_7_bit_device_address>
			}

		}

		if (get_flag_status_sr1(I2C2,FLAG_ADDR_SR1) == 1)
 8001d1c:	2102      	movs	r1, #2
 8001d1e:	4823      	ldr	r0, [pc, #140]	; (8001dac <I2C2_EV_IRQHandler+0xdc>)
 8001d20:	f7ff ff60 	bl	8001be4 <get_flag_status_sr1>
 8001d24:	4603      	mov	r3, r0
 8001d26:	2b01      	cmp	r3, #1
 8001d28:	d129      	bne.n	8001d7e <I2C2_EV_IRQHandler+0xae>
		{
			if (flag_send_write_address)
 8001d2a:	4b21      	ldr	r3, [pc, #132]	; (8001db0 <I2C2_EV_IRQHandler+0xe0>)
 8001d2c:	781b      	ldrb	r3, [r3, #0]
 8001d2e:	2b00      	cmp	r3, #0
 8001d30:	d014      	beq.n	8001d5c <I2C2_EV_IRQHandler+0x8c>
			{
				clear_addr_bit(I2C2);
 8001d32:	481e      	ldr	r0, [pc, #120]	; (8001dac <I2C2_EV_IRQHandler+0xdc>)
 8001d34:	f7ff ff9c 	bl	8001c70 <clear_addr_bit>
				flag_send_write_address = 0;
 8001d38:	4b1d      	ldr	r3, [pc, #116]	; (8001db0 <I2C2_EV_IRQHandler+0xe0>)
 8001d3a:	2200      	movs	r2, #0
 8001d3c:	701a      	strb	r2, [r3, #0]
				if(flag_dma_based_read)
 8001d3e:	4b1d      	ldr	r3, [pc, #116]	; (8001db4 <I2C2_EV_IRQHandler+0xe4>)
 8001d40:	781b      	ldrb	r3, [r3, #0]
 8001d42:	2b00      	cmp	r3, #0
 8001d44:	d01b      	beq.n	8001d7e <I2C2_EV_IRQHandler+0xae>
				{
					dma_counter_set(DMA1,CHANNEL_4,2);
 8001d46:	2202      	movs	r2, #2
 8001d48:	2104      	movs	r1, #4
 8001d4a:	481b      	ldr	r0, [pc, #108]	; (8001db8 <I2C2_EV_IRQHandler+0xe8>)
 8001d4c:	f7ff fbf2 	bl	8001534 <dma_counter_set>
					dma_channel_en(DMA1,CHANNEL_4,1);
 8001d50:	2201      	movs	r2, #1
 8001d52:	2104      	movs	r1, #4
 8001d54:	4818      	ldr	r0, [pc, #96]	; (8001db8 <I2C2_EV_IRQHandler+0xe8>)
 8001d56:	f7ff fc05 	bl	8001564 <dma_channel_en>
 8001d5a:	e010      	b.n	8001d7e <I2C2_EV_IRQHandler+0xae>
				}
			}
			else if (!flag_send_write_address)
 8001d5c:	4b14      	ldr	r3, [pc, #80]	; (8001db0 <I2C2_EV_IRQHandler+0xe0>)
 8001d5e:	781b      	ldrb	r3, [r3, #0]
 8001d60:	2b00      	cmp	r3, #0
 8001d62:	d10c      	bne.n	8001d7e <I2C2_EV_IRQHandler+0xae>
			{
				clear_addr_bit(I2C2);
 8001d64:	4811      	ldr	r0, [pc, #68]	; (8001dac <I2C2_EV_IRQHandler+0xdc>)
 8001d66:	f7ff ff83 	bl	8001c70 <clear_addr_bit>
				if (!flag_read_multiple_byte)
 8001d6a:	4b14      	ldr	r3, [pc, #80]	; (8001dbc <I2C2_EV_IRQHandler+0xec>)
 8001d6c:	781b      	ldrb	r3, [r3, #0]
 8001d6e:	2b00      	cmp	r3, #0
 8001d70:	d105      	bne.n	8001d7e <I2C2_EV_IRQHandler+0xae>
				{
					i2c_ack_di(I2C2);
 8001d72:	480e      	ldr	r0, [pc, #56]	; (8001dac <I2C2_EV_IRQHandler+0xdc>)
 8001d74:	f7ff ff6d 	bl	8001c52 <i2c_ack_di>
					send_stop(I2C2);
 8001d78:	480c      	ldr	r0, [pc, #48]	; (8001dac <I2C2_EV_IRQHandler+0xdc>)
 8001d7a:	f7ff ff21 	bl	8001bc0 <send_stop>
				}
			}
		}

		if (get_flag_status_sr1(I2C2,FLAG_BTF_SR1) == 1)
 8001d7e:	2104      	movs	r1, #4
 8001d80:	480a      	ldr	r0, [pc, #40]	; (8001dac <I2C2_EV_IRQHandler+0xdc>)
 8001d82:	f7ff ff2f 	bl	8001be4 <get_flag_status_sr1>
 8001d86:	4603      	mov	r3, r0
 8001d88:	2b01      	cmp	r3, #1
 8001d8a:	d102      	bne.n	8001d92 <I2C2_EV_IRQHandler+0xc2>
		{
			send_stop(I2C2);
 8001d8c:	4807      	ldr	r0, [pc, #28]	; (8001dac <I2C2_EV_IRQHandler+0xdc>)
 8001d8e:	f7ff ff17 	bl	8001bc0 <send_stop>
		}
	}

	if (I2C2->CR2 & (1 << 10))
 8001d92:	4b06      	ldr	r3, [pc, #24]	; (8001dac <I2C2_EV_IRQHandler+0xdc>)
 8001d94:	685b      	ldr	r3, [r3, #4]
 8001d96:	f403 6380 	and.w	r3, r3, #1024	; 0x400
 8001d9a:	2b00      	cmp	r3, #0
 8001d9c:	d001      	beq.n	8001da2 <I2C2_EV_IRQHandler+0xd2>
	{

		i2c2_buffer_interrupt_handling();
 8001d9e:	f000 f80f 	bl	8001dc0 <i2c2_buffer_interrupt_handling>
	}
}
 8001da2:	bf00      	nop
 8001da4:	3708      	adds	r7, #8
 8001da6:	46bd      	mov	sp, r7
 8001da8:	bd80      	pop	{r7, pc}
 8001daa:	bf00      	nop
 8001dac:	40005800 	.word	0x40005800
 8001db0:	20000224 	.word	0x20000224
 8001db4:	20000228 	.word	0x20000228
 8001db8:	40020000 	.word	0x40020000
 8001dbc:	20000227 	.word	0x20000227

08001dc0 <i2c2_buffer_interrupt_handling>:




void i2c2_buffer_interrupt_handling(void)
{
 8001dc0:	b580      	push	{r7, lr}
 8001dc2:	af00      	add	r7, sp, #0
	static uint8_t i = 0;
	static uint8_t j = 0;
	if (get_flag_status_sr2(I2C2,FLAG_TX_OR_RX) == 1)
 8001dc4:	2104      	movs	r1, #4
 8001dc6:	4860      	ldr	r0, [pc, #384]	; (8001f48 <i2c2_buffer_interrupt_handling+0x188>)
 8001dc8:	f7ff ff20 	bl	8001c0c <get_flag_status_sr2>
 8001dcc:	4603      	mov	r3, r0
 8001dce:	2b01      	cmp	r3, #1
 8001dd0:	d137      	bne.n	8001e42 <i2c2_buffer_interrupt_handling+0x82>
	{
		if (get_flag_status_sr1(I2C2,FLAG_TXE_SR1) == 1)
 8001dd2:	2180      	movs	r1, #128	; 0x80
 8001dd4:	485c      	ldr	r0, [pc, #368]	; (8001f48 <i2c2_buffer_interrupt_handling+0x188>)
 8001dd6:	f7ff ff05 	bl	8001be4 <get_flag_status_sr1>
 8001dda:	4603      	mov	r3, r0
 8001ddc:	2b01      	cmp	r3, #1
 8001dde:	f040 80b0 	bne.w	8001f42 <i2c2_buffer_interrupt_handling+0x182>
		{
			if (flag_temp)
 8001de2:	4b5a      	ldr	r3, [pc, #360]	; (8001f4c <i2c2_buffer_interrupt_handling+0x18c>)
 8001de4:	781b      	ldrb	r3, [r3, #0]
 8001de6:	2b00      	cmp	r3, #0
 8001de8:	d008      	beq.n	8001dfc <i2c2_buffer_interrupt_handling+0x3c>
			{
				flag_temp = 0;
 8001dea:	4b58      	ldr	r3, [pc, #352]	; (8001f4c <i2c2_buffer_interrupt_handling+0x18c>)
 8001dec:	2200      	movs	r2, #0
 8001dee:	701a      	strb	r2, [r3, #0]
				temp_transmit_len = transmit_len;
 8001df0:	4b57      	ldr	r3, [pc, #348]	; (8001f50 <i2c2_buffer_interrupt_handling+0x190>)
 8001df2:	f993 3000 	ldrsb.w	r3, [r3]
 8001df6:	b2da      	uxtb	r2, r3
 8001df8:	4b56      	ldr	r3, [pc, #344]	; (8001f54 <i2c2_buffer_interrupt_handling+0x194>)
 8001dfa:	701a      	strb	r2, [r3, #0]
			}

			if (transmit_len-- > 0)
 8001dfc:	4b54      	ldr	r3, [pc, #336]	; (8001f50 <i2c2_buffer_interrupt_handling+0x190>)
 8001dfe:	f993 3000 	ldrsb.w	r3, [r3]
 8001e02:	b2da      	uxtb	r2, r3
 8001e04:	3a01      	subs	r2, #1
 8001e06:	b2d2      	uxtb	r2, r2
 8001e08:	b251      	sxtb	r1, r2
 8001e0a:	4a51      	ldr	r2, [pc, #324]	; (8001f50 <i2c2_buffer_interrupt_handling+0x190>)
 8001e0c:	7011      	strb	r1, [r2, #0]
 8001e0e:	2b00      	cmp	r3, #0
 8001e10:	dd0b      	ble.n	8001e2a <i2c2_buffer_interrupt_handling+0x6a>
			{

				I2C2->DR = eeprom_buffer[i++];
 8001e12:	4b51      	ldr	r3, [pc, #324]	; (8001f58 <i2c2_buffer_interrupt_handling+0x198>)
 8001e14:	781b      	ldrb	r3, [r3, #0]
 8001e16:	1c5a      	adds	r2, r3, #1
 8001e18:	b2d1      	uxtb	r1, r2
 8001e1a:	4a4f      	ldr	r2, [pc, #316]	; (8001f58 <i2c2_buffer_interrupt_handling+0x198>)
 8001e1c:	7011      	strb	r1, [r2, #0]
 8001e1e:	461a      	mov	r2, r3
 8001e20:	4b4e      	ldr	r3, [pc, #312]	; (8001f5c <i2c2_buffer_interrupt_handling+0x19c>)
 8001e22:	5c9a      	ldrb	r2, [r3, r2]
 8001e24:	4b48      	ldr	r3, [pc, #288]	; (8001f48 <i2c2_buffer_interrupt_handling+0x188>)
 8001e26:	611a      	str	r2, [r3, #16]
				}
			}
		}
	}

}
 8001e28:	e08b      	b.n	8001f42 <i2c2_buffer_interrupt_handling+0x182>
				if (flag_interrupt_based_read)
 8001e2a:	4b4d      	ldr	r3, [pc, #308]	; (8001f60 <i2c2_buffer_interrupt_handling+0x1a0>)
 8001e2c:	781b      	ldrb	r3, [r3, #0]
 8001e2e:	2b00      	cmp	r3, #0
 8001e30:	f000 8087 	beq.w	8001f42 <i2c2_buffer_interrupt_handling+0x182>
					flag_interrupt_based_read = 0;
 8001e34:	4b4a      	ldr	r3, [pc, #296]	; (8001f60 <i2c2_buffer_interrupt_handling+0x1a0>)
 8001e36:	2200      	movs	r2, #0
 8001e38:	701a      	strb	r2, [r3, #0]
					send_repeated_start(I2C2);
 8001e3a:	4843      	ldr	r0, [pc, #268]	; (8001f48 <i2c2_buffer_interrupt_handling+0x188>)
 8001e3c:	f7ff ff36 	bl	8001cac <send_repeated_start>
}
 8001e40:	e07f      	b.n	8001f42 <i2c2_buffer_interrupt_handling+0x182>
	else if (get_flag_status_sr2(I2C2,FLAG_TX_OR_RX) == 0)
 8001e42:	2104      	movs	r1, #4
 8001e44:	4840      	ldr	r0, [pc, #256]	; (8001f48 <i2c2_buffer_interrupt_handling+0x188>)
 8001e46:	f7ff fee1 	bl	8001c0c <get_flag_status_sr2>
 8001e4a:	4603      	mov	r3, r0
 8001e4c:	2b00      	cmp	r3, #0
 8001e4e:	d178      	bne.n	8001f42 <i2c2_buffer_interrupt_handling+0x182>
		if (get_flag_status_sr1(I2C2,FLAG_RXNE_SR1) == 1)
 8001e50:	2140      	movs	r1, #64	; 0x40
 8001e52:	483d      	ldr	r0, [pc, #244]	; (8001f48 <i2c2_buffer_interrupt_handling+0x188>)
 8001e54:	f7ff fec6 	bl	8001be4 <get_flag_status_sr1>
 8001e58:	4603      	mov	r3, r0
 8001e5a:	2b01      	cmp	r3, #1
 8001e5c:	d171      	bne.n	8001f42 <i2c2_buffer_interrupt_handling+0x182>
			if (!flag_read_multiple_byte)
 8001e5e:	4b41      	ldr	r3, [pc, #260]	; (8001f64 <i2c2_buffer_interrupt_handling+0x1a4>)
 8001e60:	781b      	ldrb	r3, [r3, #0]
 8001e62:	2b00      	cmp	r3, #0
 8001e64:	d11e      	bne.n	8001ea4 <i2c2_buffer_interrupt_handling+0xe4>
				if (receive_len-- > 0)
 8001e66:	4b40      	ldr	r3, [pc, #256]	; (8001f68 <i2c2_buffer_interrupt_handling+0x1a8>)
 8001e68:	f993 3000 	ldrsb.w	r3, [r3]
 8001e6c:	b2da      	uxtb	r2, r3
 8001e6e:	3a01      	subs	r2, #1
 8001e70:	b2d2      	uxtb	r2, r2
 8001e72:	b251      	sxtb	r1, r2
 8001e74:	4a3c      	ldr	r2, [pc, #240]	; (8001f68 <i2c2_buffer_interrupt_handling+0x1a8>)
 8001e76:	7011      	strb	r1, [r2, #0]
 8001e78:	2b00      	cmp	r3, #0
 8001e7a:	dd0c      	ble.n	8001e96 <i2c2_buffer_interrupt_handling+0xd6>
					rx_i2c_buffer[j++] = I2C2->DR;
 8001e7c:	4b32      	ldr	r3, [pc, #200]	; (8001f48 <i2c2_buffer_interrupt_handling+0x188>)
 8001e7e:	6919      	ldr	r1, [r3, #16]
 8001e80:	4b3a      	ldr	r3, [pc, #232]	; (8001f6c <i2c2_buffer_interrupt_handling+0x1ac>)
 8001e82:	781b      	ldrb	r3, [r3, #0]
 8001e84:	1c5a      	adds	r2, r3, #1
 8001e86:	b2d0      	uxtb	r0, r2
 8001e88:	4a38      	ldr	r2, [pc, #224]	; (8001f6c <i2c2_buffer_interrupt_handling+0x1ac>)
 8001e8a:	7010      	strb	r0, [r2, #0]
 8001e8c:	461a      	mov	r2, r3
 8001e8e:	b2c9      	uxtb	r1, r1
 8001e90:	4b37      	ldr	r3, [pc, #220]	; (8001f70 <i2c2_buffer_interrupt_handling+0x1b0>)
 8001e92:	5499      	strb	r1, [r3, r2]
}
 8001e94:	e055      	b.n	8001f42 <i2c2_buffer_interrupt_handling+0x182>
					I2C2->CR2 &= ~(1 << IT_BUF_EN_BIT_POSTITION_CR2);
 8001e96:	4b2c      	ldr	r3, [pc, #176]	; (8001f48 <i2c2_buffer_interrupt_handling+0x188>)
 8001e98:	685b      	ldr	r3, [r3, #4]
 8001e9a:	4a2b      	ldr	r2, [pc, #172]	; (8001f48 <i2c2_buffer_interrupt_handling+0x188>)
 8001e9c:	f423 6380 	bic.w	r3, r3, #1024	; 0x400
 8001ea0:	6053      	str	r3, [r2, #4]
}
 8001ea2:	e04e      	b.n	8001f42 <i2c2_buffer_interrupt_handling+0x182>
			else if(flag_read_multiple_byte)
 8001ea4:	4b2f      	ldr	r3, [pc, #188]	; (8001f64 <i2c2_buffer_interrupt_handling+0x1a4>)
 8001ea6:	781b      	ldrb	r3, [r3, #0]
 8001ea8:	2b00      	cmp	r3, #0
 8001eaa:	d04a      	beq.n	8001f42 <i2c2_buffer_interrupt_handling+0x182>
				if (receive_len > 2)
 8001eac:	4b2e      	ldr	r3, [pc, #184]	; (8001f68 <i2c2_buffer_interrupt_handling+0x1a8>)
 8001eae:	f993 3000 	ldrsb.w	r3, [r3]
 8001eb2:	2b02      	cmp	r3, #2
 8001eb4:	dd15      	ble.n	8001ee2 <i2c2_buffer_interrupt_handling+0x122>
					rx_i2c_buffer[j++] = I2C2->DR;
 8001eb6:	4b24      	ldr	r3, [pc, #144]	; (8001f48 <i2c2_buffer_interrupt_handling+0x188>)
 8001eb8:	6919      	ldr	r1, [r3, #16]
 8001eba:	4b2c      	ldr	r3, [pc, #176]	; (8001f6c <i2c2_buffer_interrupt_handling+0x1ac>)
 8001ebc:	781b      	ldrb	r3, [r3, #0]
 8001ebe:	1c5a      	adds	r2, r3, #1
 8001ec0:	b2d0      	uxtb	r0, r2
 8001ec2:	4a2a      	ldr	r2, [pc, #168]	; (8001f6c <i2c2_buffer_interrupt_handling+0x1ac>)
 8001ec4:	7010      	strb	r0, [r2, #0]
 8001ec6:	461a      	mov	r2, r3
 8001ec8:	b2c9      	uxtb	r1, r1
 8001eca:	4b29      	ldr	r3, [pc, #164]	; (8001f70 <i2c2_buffer_interrupt_handling+0x1b0>)
 8001ecc:	5499      	strb	r1, [r3, r2]
					receive_len -= 1;
 8001ece:	4b26      	ldr	r3, [pc, #152]	; (8001f68 <i2c2_buffer_interrupt_handling+0x1a8>)
 8001ed0:	f993 3000 	ldrsb.w	r3, [r3]
 8001ed4:	b2db      	uxtb	r3, r3
 8001ed6:	3b01      	subs	r3, #1
 8001ed8:	b2db      	uxtb	r3, r3
 8001eda:	b25a      	sxtb	r2, r3
 8001edc:	4b22      	ldr	r3, [pc, #136]	; (8001f68 <i2c2_buffer_interrupt_handling+0x1a8>)
 8001ede:	701a      	strb	r2, [r3, #0]
}
 8001ee0:	e02f      	b.n	8001f42 <i2c2_buffer_interrupt_handling+0x182>
					if (receive_len == 2)
 8001ee2:	4b21      	ldr	r3, [pc, #132]	; (8001f68 <i2c2_buffer_interrupt_handling+0x1a8>)
 8001ee4:	f993 3000 	ldrsb.w	r3, [r3]
 8001ee8:	2b02      	cmp	r3, #2
 8001eea:	d11b      	bne.n	8001f24 <i2c2_buffer_interrupt_handling+0x164>
						rx_i2c_buffer[j++] = I2C2->DR;
 8001eec:	4b16      	ldr	r3, [pc, #88]	; (8001f48 <i2c2_buffer_interrupt_handling+0x188>)
 8001eee:	6919      	ldr	r1, [r3, #16]
 8001ef0:	4b1e      	ldr	r3, [pc, #120]	; (8001f6c <i2c2_buffer_interrupt_handling+0x1ac>)
 8001ef2:	781b      	ldrb	r3, [r3, #0]
 8001ef4:	1c5a      	adds	r2, r3, #1
 8001ef6:	b2d0      	uxtb	r0, r2
 8001ef8:	4a1c      	ldr	r2, [pc, #112]	; (8001f6c <i2c2_buffer_interrupt_handling+0x1ac>)
 8001efa:	7010      	strb	r0, [r2, #0]
 8001efc:	461a      	mov	r2, r3
 8001efe:	b2c9      	uxtb	r1, r1
 8001f00:	4b1b      	ldr	r3, [pc, #108]	; (8001f70 <i2c2_buffer_interrupt_handling+0x1b0>)
 8001f02:	5499      	strb	r1, [r3, r2]
						i2c_ack_di(I2C2);
 8001f04:	4810      	ldr	r0, [pc, #64]	; (8001f48 <i2c2_buffer_interrupt_handling+0x188>)
 8001f06:	f7ff fea4 	bl	8001c52 <i2c_ack_di>
						send_stop(I2C2);
 8001f0a:	480f      	ldr	r0, [pc, #60]	; (8001f48 <i2c2_buffer_interrupt_handling+0x188>)
 8001f0c:	f7ff fe58 	bl	8001bc0 <send_stop>
						receive_len -= 1;
 8001f10:	4b15      	ldr	r3, [pc, #84]	; (8001f68 <i2c2_buffer_interrupt_handling+0x1a8>)
 8001f12:	f993 3000 	ldrsb.w	r3, [r3]
 8001f16:	b2db      	uxtb	r3, r3
 8001f18:	3b01      	subs	r3, #1
 8001f1a:	b2db      	uxtb	r3, r3
 8001f1c:	b25a      	sxtb	r2, r3
 8001f1e:	4b12      	ldr	r3, [pc, #72]	; (8001f68 <i2c2_buffer_interrupt_handling+0x1a8>)
 8001f20:	701a      	strb	r2, [r3, #0]
}
 8001f22:	e00e      	b.n	8001f42 <i2c2_buffer_interrupt_handling+0x182>
						rx_i2c_buffer[j++] = I2C2->DR;
 8001f24:	4b08      	ldr	r3, [pc, #32]	; (8001f48 <i2c2_buffer_interrupt_handling+0x188>)
 8001f26:	6919      	ldr	r1, [r3, #16]
 8001f28:	4b10      	ldr	r3, [pc, #64]	; (8001f6c <i2c2_buffer_interrupt_handling+0x1ac>)
 8001f2a:	781b      	ldrb	r3, [r3, #0]
 8001f2c:	1c5a      	adds	r2, r3, #1
 8001f2e:	b2d0      	uxtb	r0, r2
 8001f30:	4a0e      	ldr	r2, [pc, #56]	; (8001f6c <i2c2_buffer_interrupt_handling+0x1ac>)
 8001f32:	7010      	strb	r0, [r2, #0]
 8001f34:	461a      	mov	r2, r3
 8001f36:	b2c9      	uxtb	r1, r1
 8001f38:	4b0d      	ldr	r3, [pc, #52]	; (8001f70 <i2c2_buffer_interrupt_handling+0x1b0>)
 8001f3a:	5499      	strb	r1, [r3, r2]
						flag_read_multiple_byte = 0;
 8001f3c:	4b09      	ldr	r3, [pc, #36]	; (8001f64 <i2c2_buffer_interrupt_handling+0x1a4>)
 8001f3e:	2200      	movs	r2, #0
 8001f40:	701a      	strb	r2, [r3, #0]
}
 8001f42:	bf00      	nop
 8001f44:	bd80      	pop	{r7, pc}
 8001f46:	bf00      	nop
 8001f48:	40005800 	.word	0x40005800
 8001f4c:	20000226 	.word	0x20000226
 8001f50:	2000021c 	.word	0x2000021c
 8001f54:	20000229 	.word	0x20000229
 8001f58:	2000022a 	.word	0x2000022a
 8001f5c:	200001dc 	.word	0x200001dc
 8001f60:	20000225 	.word	0x20000225
 8001f64:	20000227 	.word	0x20000227
 8001f68:	20000223 	.word	0x20000223
 8001f6c:	2000022b 	.word	0x2000022b
 8001f70:	20000220 	.word	0x20000220

08001f74 <i2cx_reset>:

void i2cx_reset(i2cx_regdef_t *p_i2cx)
{
 8001f74:	b480      	push	{r7}
 8001f76:	b083      	sub	sp, #12
 8001f78:	af00      	add	r7, sp, #0
 8001f7a:	6078      	str	r0, [r7, #4]
	p_i2cx->CR1 |= (1 << I2CX_SOFTWARE_RESET_BIT_POSITION_CR1);
 8001f7c:	687b      	ldr	r3, [r7, #4]
 8001f7e:	681b      	ldr	r3, [r3, #0]
 8001f80:	f443 4200 	orr.w	r2, r3, #32768	; 0x8000
 8001f84:	687b      	ldr	r3, [r7, #4]
 8001f86:	601a      	str	r2, [r3, #0]
	while(p_i2cx->SR2 & (1<< 1)); // waite for busy flag to reset
 8001f88:	bf00      	nop
 8001f8a:	687b      	ldr	r3, [r7, #4]
 8001f8c:	699b      	ldr	r3, [r3, #24]
 8001f8e:	f003 0302 	and.w	r3, r3, #2
 8001f92:	2b00      	cmp	r3, #0
 8001f94:	d1f9      	bne.n	8001f8a <i2cx_reset+0x16>
	p_i2cx->CR1 &= ~(1 << I2CX_SOFTWARE_RESET_BIT_POSITION_CR1);
 8001f96:	687b      	ldr	r3, [r7, #4]
 8001f98:	681b      	ldr	r3, [r3, #0]
 8001f9a:	f423 4200 	bic.w	r2, r3, #32768	; 0x8000
 8001f9e:	687b      	ldr	r3, [r7, #4]
 8001fa0:	601a      	str	r2, [r3, #0]
}
 8001fa2:	bf00      	nop
 8001fa4:	370c      	adds	r7, #12
 8001fa6:	46bd      	mov	sp, r7
 8001fa8:	bc80      	pop	{r7}
 8001faa:	4770      	bx	lr

08001fac <nvic_en_irq>:
 */

#include "System.h"

void nvic_en_irq(irqn_type irqn)
{
 8001fac:	b480      	push	{r7}
 8001fae:	b085      	sub	sp, #20
 8001fb0:	af00      	add	r7, sp, #0
 8001fb2:	4603      	mov	r3, r0
 8001fb4:	71fb      	strb	r3, [r7, #7]
	uint8_t register_position = irqn / 32;
 8001fb6:	79fb      	ldrb	r3, [r7, #7]
 8001fb8:	095b      	lsrs	r3, r3, #5
 8001fba:	73fb      	strb	r3, [r7, #15]
	uint8_t irq_position = irqn % 32;
 8001fbc:	79fb      	ldrb	r3, [r7, #7]
 8001fbe:	f003 031f 	and.w	r3, r3, #31
 8001fc2:	73bb      	strb	r3, [r7, #14]
	NVIC->ISER[register_position] = (1 << irq_position);
 8001fc4:	7bbb      	ldrb	r3, [r7, #14]
 8001fc6:	2201      	movs	r2, #1
 8001fc8:	fa02 f103 	lsl.w	r1, r2, r3
 8001fcc:	4a04      	ldr	r2, [pc, #16]	; (8001fe0 <nvic_en_irq+0x34>)
 8001fce:	7bfb      	ldrb	r3, [r7, #15]
 8001fd0:	f842 1023 	str.w	r1, [r2, r3, lsl #2]
}
 8001fd4:	bf00      	nop
 8001fd6:	3714      	adds	r7, #20
 8001fd8:	46bd      	mov	sp, r7
 8001fda:	bc80      	pop	{r7}
 8001fdc:	4770      	bx	lr
 8001fde:	bf00      	nop
 8001fe0:	e000e100 	.word	0xe000e100

08001fe4 <timer_channel_init>:
		[TIMER_CHANNEL_1] = {TIMER_CHANNEL_1,0,UP_COUNTING,CENTER_ALIGNED_MODE_3,8000,10,CC_X_AS_OUTPUT,PWM_MODE_1,CC_X_ACTIVE_HIGH,NOT_APPLICABLE,NOT_APPLICABLE,DISABLE,TIM_DIER_CC1I_EN,DISABLE,TIM_DIER_CC1DE_EN,CAPTURE_COMPARE_1_OUTPUT_EN},
		[TIMER_CHANNEL_2] = {TIMER_CHANNEL_2,0,UP_COUNTING,EDGE_ALIGNED_MODE,8000,10,CC_X_AS_INPUT_IC_X_TO_TI_X,NOT_APPLICABLE,IC_X_RISING,NO_PRESCALER,SAMPLING_FCK_INT_N_8,ENABLE,TIM_DIER_CC2I_EN,DISABLE,TIM_DIER_CC1DE_EN,CAPTURE_COMPARE_2_OUTPUT_EN},
};

void timer_channel_init(timerx_regdef_t *p_timerx,uint8_t channel)
{
 8001fe4:	b590      	push	{r4, r7, lr}
 8001fe6:	b085      	sub	sp, #20
 8001fe8:	af00      	add	r7, sp, #0
 8001fea:	6078      	str	r0, [r7, #4]
 8001fec:	460b      	mov	r3, r1
 8001fee:	70fb      	strb	r3, [r7, #3]
	uint8_t temp;

	//Center aligned mode selection
	p_timerx->CR1 &= ~(MASK_FOR_CLEAR_2_BIT << CMS_BIT_POSTION_CR1);
 8001ff0:	687b      	ldr	r3, [r7, #4]
 8001ff2:	681b      	ldr	r3, [r3, #0]
 8001ff4:	f023 0260 	bic.w	r2, r3, #96	; 0x60
 8001ff8:	687b      	ldr	r3, [r7, #4]
 8001ffa:	601a      	str	r2, [r3, #0]
	p_timerx->CR1 |= timer1_channel_x_config[channel].center_aligned_mode << CMS_BIT_POSTION_CR1;
 8001ffc:	687b      	ldr	r3, [r7, #4]
 8001ffe:	681b      	ldr	r3, [r3, #0]
 8002000:	78fa      	ldrb	r2, [r7, #3]
 8002002:	490e      	ldr	r1, [pc, #56]	; (800203c <timer_channel_init+0x58>)
 8002004:	2016      	movs	r0, #22
 8002006:	fb00 f202 	mul.w	r2, r0, r2
 800200a:	440a      	add	r2, r1
 800200c:	3203      	adds	r2, #3
 800200e:	7812      	ldrb	r2, [r2, #0]
 8002010:	0152      	lsls	r2, r2, #5
 8002012:	431a      	orrs	r2, r3
 8002014:	687b      	ldr	r3, [r7, #4]
 8002016:	601a      	str	r2, [r3, #0]

	//Counting  Direction
	if (timer1_channel_x_config[channel].dir == UP_COUNTING)
 8002018:	78fb      	ldrb	r3, [r7, #3]
 800201a:	4a08      	ldr	r2, [pc, #32]	; (800203c <timer_channel_init+0x58>)
 800201c:	2116      	movs	r1, #22
 800201e:	fb01 f303 	mul.w	r3, r1, r3
 8002022:	4413      	add	r3, r2
 8002024:	3302      	adds	r3, #2
 8002026:	781b      	ldrb	r3, [r3, #0]
 8002028:	2b00      	cmp	r3, #0
 800202a:	d109      	bne.n	8002040 <timer_channel_init+0x5c>
		p_timerx->CR1 &= ~(1 << COUNTING_DIR_BIT_POSITION_CR1);
 800202c:	687b      	ldr	r3, [r7, #4]
 800202e:	681b      	ldr	r3, [r3, #0]
 8002030:	f023 0210 	bic.w	r2, r3, #16
 8002034:	687b      	ldr	r3, [r7, #4]
 8002036:	601a      	str	r2, [r3, #0]
 8002038:	e008      	b.n	800204c <timer_channel_init+0x68>
 800203a:	bf00      	nop
 800203c:	20000164 	.word	0x20000164
	else
		p_timerx->CR1 |= (1 << COUNTING_DIR_BIT_POSITION_CR1);
 8002040:	687b      	ldr	r3, [r7, #4]
 8002042:	681b      	ldr	r3, [r3, #0]
 8002044:	f043 0210 	orr.w	r2, r3, #16
 8002048:	687b      	ldr	r3, [r7, #4]
 800204a:	601a      	str	r2, [r3, #0]

	//Pre-scalar
	p_timerx->PSC = timer1_channel_x_config[channel].prescalar;
 800204c:	78fb      	ldrb	r3, [r7, #3]
 800204e:	4ab6      	ldr	r2, [pc, #728]	; (8002328 <timer_channel_init+0x344>)
 8002050:	2116      	movs	r1, #22
 8002052:	fb01 f303 	mul.w	r3, r1, r3
 8002056:	4413      	add	r3, r2
 8002058:	3304      	adds	r3, #4
 800205a:	881b      	ldrh	r3, [r3, #0]
 800205c:	461a      	mov	r2, r3
 800205e:	687b      	ldr	r3, [r7, #4]
 8002060:	629a      	str	r2, [r3, #40]	; 0x28

	p_timerx->ARR = timer1_channel_x_config[channel].auto_reload_reg_value;
 8002062:	78fb      	ldrb	r3, [r7, #3]
 8002064:	4ab0      	ldr	r2, [pc, #704]	; (8002328 <timer_channel_init+0x344>)
 8002066:	2116      	movs	r1, #22
 8002068:	fb01 f303 	mul.w	r3, r1, r3
 800206c:	4413      	add	r3, r2
 800206e:	3306      	adds	r3, #6
 8002070:	881b      	ldrh	r3, [r3, #0]
 8002072:	461a      	mov	r2, r3
 8002074:	687b      	ldr	r3, [r7, #4]
 8002076:	62da      	str	r2, [r3, #44]	; 0x2c

	// CC_X configuration as output or input
	temp = timer1_channel_x_config[channel].timer_x_channel_number % 2;
 8002078:	78fb      	ldrb	r3, [r7, #3]
 800207a:	4aab      	ldr	r2, [pc, #684]	; (8002328 <timer_channel_init+0x344>)
 800207c:	2116      	movs	r1, #22
 800207e:	fb01 f303 	mul.w	r3, r1, r3
 8002082:	4413      	add	r3, r2
 8002084:	781b      	ldrb	r3, [r3, #0]
 8002086:	f003 0301 	and.w	r3, r3, #1
 800208a:	73fb      	strb	r3, [r7, #15]
	p_timerx->CCMR[timer1_channel_x_config[channel].timer_x_channel_number / 2] &= ~(MASK_FOR_CLEAR_2_BIT << (8 * temp));
 800208c:	78fb      	ldrb	r3, [r7, #3]
 800208e:	4aa6      	ldr	r2, [pc, #664]	; (8002328 <timer_channel_init+0x344>)
 8002090:	2116      	movs	r1, #22
 8002092:	fb01 f303 	mul.w	r3, r1, r3
 8002096:	4413      	add	r3, r2
 8002098:	781b      	ldrb	r3, [r3, #0]
 800209a:	085b      	lsrs	r3, r3, #1
 800209c:	b2d8      	uxtb	r0, r3
 800209e:	4602      	mov	r2, r0
 80020a0:	687b      	ldr	r3, [r7, #4]
 80020a2:	3206      	adds	r2, #6
 80020a4:	f853 3022 	ldr.w	r3, [r3, r2, lsl #2]
 80020a8:	7bfa      	ldrb	r2, [r7, #15]
 80020aa:	00d2      	lsls	r2, r2, #3
 80020ac:	2103      	movs	r1, #3
 80020ae:	fa01 f202 	lsl.w	r2, r1, r2
 80020b2:	43d2      	mvns	r2, r2
 80020b4:	4611      	mov	r1, r2
 80020b6:	4602      	mov	r2, r0
 80020b8:	4019      	ands	r1, r3
 80020ba:	687b      	ldr	r3, [r7, #4]
 80020bc:	3206      	adds	r2, #6
 80020be:	f843 1022 	str.w	r1, [r3, r2, lsl #2]
	p_timerx->CCMR[timer1_channel_x_config[channel].timer_x_channel_number / 2] |= (timer1_channel_x_config[channel].capture_compare_selection << (8 * temp));
 80020c2:	78fb      	ldrb	r3, [r7, #3]
 80020c4:	4a98      	ldr	r2, [pc, #608]	; (8002328 <timer_channel_init+0x344>)
 80020c6:	2116      	movs	r1, #22
 80020c8:	fb01 f303 	mul.w	r3, r1, r3
 80020cc:	4413      	add	r3, r2
 80020ce:	781b      	ldrb	r3, [r3, #0]
 80020d0:	085b      	lsrs	r3, r3, #1
 80020d2:	b2dc      	uxtb	r4, r3
 80020d4:	4622      	mov	r2, r4
 80020d6:	687b      	ldr	r3, [r7, #4]
 80020d8:	3206      	adds	r2, #6
 80020da:	f853 3022 	ldr.w	r3, [r3, r2, lsl #2]
 80020de:	78fa      	ldrb	r2, [r7, #3]
 80020e0:	4991      	ldr	r1, [pc, #580]	; (8002328 <timer_channel_init+0x344>)
 80020e2:	2016      	movs	r0, #22
 80020e4:	fb00 f202 	mul.w	r2, r0, r2
 80020e8:	440a      	add	r2, r1
 80020ea:	3208      	adds	r2, #8
 80020ec:	7812      	ldrb	r2, [r2, #0]
 80020ee:	4611      	mov	r1, r2
 80020f0:	7bfa      	ldrb	r2, [r7, #15]
 80020f2:	00d2      	lsls	r2, r2, #3
 80020f4:	fa01 f202 	lsl.w	r2, r1, r2
 80020f8:	4611      	mov	r1, r2
 80020fa:	4622      	mov	r2, r4
 80020fc:	4319      	orrs	r1, r3
 80020fe:	687b      	ldr	r3, [r7, #4]
 8002100:	3206      	adds	r2, #6
 8002102:	f843 1022 	str.w	r1, [r3, r2, lsl #2]

	//output compare mode
	if (timer1_channel_x_config[channel].capture_compare_selection == CC_X_AS_OUTPUT)
 8002106:	78fb      	ldrb	r3, [r7, #3]
 8002108:	4a87      	ldr	r2, [pc, #540]	; (8002328 <timer_channel_init+0x344>)
 800210a:	2116      	movs	r1, #22
 800210c:	fb01 f303 	mul.w	r3, r1, r3
 8002110:	4413      	add	r3, r2
 8002112:	3308      	adds	r3, #8
 8002114:	781b      	ldrb	r3, [r3, #0]
 8002116:	2b00      	cmp	r3, #0
 8002118:	d14e      	bne.n	80021b8 <timer_channel_init+0x1d4>
	{
		temp = timer1_channel_x_config[channel].timer_x_channel_number % 2;
 800211a:	78fb      	ldrb	r3, [r7, #3]
 800211c:	4a82      	ldr	r2, [pc, #520]	; (8002328 <timer_channel_init+0x344>)
 800211e:	2116      	movs	r1, #22
 8002120:	fb01 f303 	mul.w	r3, r1, r3
 8002124:	4413      	add	r3, r2
 8002126:	781b      	ldrb	r3, [r3, #0]
 8002128:	f003 0301 	and.w	r3, r3, #1
 800212c:	73fb      	strb	r3, [r7, #15]
		p_timerx->CCMR[timer1_channel_x_config[channel].timer_x_channel_number / 2] &= ~(MASK_FOR_CLEAR_3_BIT << ((8 * temp) + 4));
 800212e:	78fb      	ldrb	r3, [r7, #3]
 8002130:	4a7d      	ldr	r2, [pc, #500]	; (8002328 <timer_channel_init+0x344>)
 8002132:	2116      	movs	r1, #22
 8002134:	fb01 f303 	mul.w	r3, r1, r3
 8002138:	4413      	add	r3, r2
 800213a:	781b      	ldrb	r3, [r3, #0]
 800213c:	085b      	lsrs	r3, r3, #1
 800213e:	b2d8      	uxtb	r0, r3
 8002140:	4602      	mov	r2, r0
 8002142:	687b      	ldr	r3, [r7, #4]
 8002144:	3206      	adds	r2, #6
 8002146:	f853 3022 	ldr.w	r3, [r3, r2, lsl #2]
 800214a:	7bfa      	ldrb	r2, [r7, #15]
 800214c:	00d2      	lsls	r2, r2, #3
 800214e:	3204      	adds	r2, #4
 8002150:	2107      	movs	r1, #7
 8002152:	fa01 f202 	lsl.w	r2, r1, r2
 8002156:	43d2      	mvns	r2, r2
 8002158:	4611      	mov	r1, r2
 800215a:	4602      	mov	r2, r0
 800215c:	4019      	ands	r1, r3
 800215e:	687b      	ldr	r3, [r7, #4]
 8002160:	3206      	adds	r2, #6
 8002162:	f843 1022 	str.w	r1, [r3, r2, lsl #2]
		p_timerx->CCMR[timer1_channel_x_config[channel].timer_x_channel_number / 2] |= (timer1_channel_x_config[channel].output_compare_mode << ((8 * temp) + 4));
 8002166:	78fb      	ldrb	r3, [r7, #3]
 8002168:	4a6f      	ldr	r2, [pc, #444]	; (8002328 <timer_channel_init+0x344>)
 800216a:	2116      	movs	r1, #22
 800216c:	fb01 f303 	mul.w	r3, r1, r3
 8002170:	4413      	add	r3, r2
 8002172:	781b      	ldrb	r3, [r3, #0]
 8002174:	085b      	lsrs	r3, r3, #1
 8002176:	b2dc      	uxtb	r4, r3
 8002178:	4622      	mov	r2, r4
 800217a:	687b      	ldr	r3, [r7, #4]
 800217c:	3206      	adds	r2, #6
 800217e:	f853 3022 	ldr.w	r3, [r3, r2, lsl #2]
 8002182:	78fa      	ldrb	r2, [r7, #3]
 8002184:	4968      	ldr	r1, [pc, #416]	; (8002328 <timer_channel_init+0x344>)
 8002186:	2016      	movs	r0, #22
 8002188:	fb00 f202 	mul.w	r2, r0, r2
 800218c:	440a      	add	r2, r1
 800218e:	3209      	adds	r2, #9
 8002190:	7812      	ldrb	r2, [r2, #0]
 8002192:	4611      	mov	r1, r2
 8002194:	7bfa      	ldrb	r2, [r7, #15]
 8002196:	00d2      	lsls	r2, r2, #3
 8002198:	3204      	adds	r2, #4
 800219a:	fa01 f202 	lsl.w	r2, r1, r2
 800219e:	4611      	mov	r1, r2
 80021a0:	4622      	mov	r2, r4
 80021a2:	4319      	orrs	r1, r3
 80021a4:	687b      	ldr	r3, [r7, #4]
 80021a6:	3206      	adds	r2, #6
 80021a8:	f843 1022 	str.w	r1, [r3, r2, lsl #2]
		p_timerx->BDTR |= (1 << MAIN_OUTPUT_EN_BIT_POSITION_BDTR);
 80021ac:	687b      	ldr	r3, [r7, #4]
 80021ae:	6c5b      	ldr	r3, [r3, #68]	; 0x44
 80021b0:	f443 4200 	orr.w	r2, r3, #32768	; 0x8000
 80021b4:	687b      	ldr	r3, [r7, #4]
 80021b6:	645a      	str	r2, [r3, #68]	; 0x44
	}
	if (timer1_channel_x_config[channel].capture_compare_selection != CC_X_AS_OUTPUT)
 80021b8:	78fb      	ldrb	r3, [r7, #3]
 80021ba:	4a5b      	ldr	r2, [pc, #364]	; (8002328 <timer_channel_init+0x344>)
 80021bc:	2116      	movs	r1, #22
 80021be:	fb01 f303 	mul.w	r3, r1, r3
 80021c2:	4413      	add	r3, r2
 80021c4:	3308      	adds	r3, #8
 80021c6:	781b      	ldrb	r3, [r3, #0]
 80021c8:	2b00      	cmp	r3, #0
 80021ca:	f000 8092 	beq.w	80022f2 <timer_channel_init+0x30e>
	{
		// input capture prescaler
		temp = timer1_channel_x_config[channel].timer_x_channel_number % 2;
 80021ce:	78fb      	ldrb	r3, [r7, #3]
 80021d0:	4a55      	ldr	r2, [pc, #340]	; (8002328 <timer_channel_init+0x344>)
 80021d2:	2116      	movs	r1, #22
 80021d4:	fb01 f303 	mul.w	r3, r1, r3
 80021d8:	4413      	add	r3, r2
 80021da:	781b      	ldrb	r3, [r3, #0]
 80021dc:	f003 0301 	and.w	r3, r3, #1
 80021e0:	73fb      	strb	r3, [r7, #15]
		p_timerx->CCMR[timer1_channel_x_config[channel].timer_x_channel_number / 2] &= ~(MASK_FOR_CLEAR_2_BIT << ((8 * temp) + 2));
 80021e2:	78fb      	ldrb	r3, [r7, #3]
 80021e4:	4a50      	ldr	r2, [pc, #320]	; (8002328 <timer_channel_init+0x344>)
 80021e6:	2116      	movs	r1, #22
 80021e8:	fb01 f303 	mul.w	r3, r1, r3
 80021ec:	4413      	add	r3, r2
 80021ee:	781b      	ldrb	r3, [r3, #0]
 80021f0:	085b      	lsrs	r3, r3, #1
 80021f2:	b2d8      	uxtb	r0, r3
 80021f4:	4602      	mov	r2, r0
 80021f6:	687b      	ldr	r3, [r7, #4]
 80021f8:	3206      	adds	r2, #6
 80021fa:	f853 3022 	ldr.w	r3, [r3, r2, lsl #2]
 80021fe:	7bfa      	ldrb	r2, [r7, #15]
 8002200:	00d2      	lsls	r2, r2, #3
 8002202:	3202      	adds	r2, #2
 8002204:	2103      	movs	r1, #3
 8002206:	fa01 f202 	lsl.w	r2, r1, r2
 800220a:	43d2      	mvns	r2, r2
 800220c:	4611      	mov	r1, r2
 800220e:	4602      	mov	r2, r0
 8002210:	4019      	ands	r1, r3
 8002212:	687b      	ldr	r3, [r7, #4]
 8002214:	3206      	adds	r2, #6
 8002216:	f843 1022 	str.w	r1, [r3, r2, lsl #2]
		p_timerx->CCMR[timer1_channel_x_config[channel].timer_x_channel_number / 2] |= (timer1_channel_x_config[channel].input_capture_prescaler << ((8 * temp) + 2));
 800221a:	78fb      	ldrb	r3, [r7, #3]
 800221c:	4a42      	ldr	r2, [pc, #264]	; (8002328 <timer_channel_init+0x344>)
 800221e:	2116      	movs	r1, #22
 8002220:	fb01 f303 	mul.w	r3, r1, r3
 8002224:	4413      	add	r3, r2
 8002226:	781b      	ldrb	r3, [r3, #0]
 8002228:	085b      	lsrs	r3, r3, #1
 800222a:	b2dc      	uxtb	r4, r3
 800222c:	4622      	mov	r2, r4
 800222e:	687b      	ldr	r3, [r7, #4]
 8002230:	3206      	adds	r2, #6
 8002232:	f853 3022 	ldr.w	r3, [r3, r2, lsl #2]
 8002236:	78fa      	ldrb	r2, [r7, #3]
 8002238:	493b      	ldr	r1, [pc, #236]	; (8002328 <timer_channel_init+0x344>)
 800223a:	2016      	movs	r0, #22
 800223c:	fb00 f202 	mul.w	r2, r0, r2
 8002240:	440a      	add	r2, r1
 8002242:	320b      	adds	r2, #11
 8002244:	7812      	ldrb	r2, [r2, #0]
 8002246:	4611      	mov	r1, r2
 8002248:	7bfa      	ldrb	r2, [r7, #15]
 800224a:	00d2      	lsls	r2, r2, #3
 800224c:	3202      	adds	r2, #2
 800224e:	fa01 f202 	lsl.w	r2, r1, r2
 8002252:	4611      	mov	r1, r2
 8002254:	4622      	mov	r2, r4
 8002256:	4319      	orrs	r1, r3
 8002258:	687b      	ldr	r3, [r7, #4]
 800225a:	3206      	adds	r2, #6
 800225c:	f843 1022 	str.w	r1, [r3, r2, lsl #2]
		//input capture filter
		temp = timer1_channel_x_config[channel].timer_x_channel_number % 2;
 8002260:	78fb      	ldrb	r3, [r7, #3]
 8002262:	4a31      	ldr	r2, [pc, #196]	; (8002328 <timer_channel_init+0x344>)
 8002264:	2116      	movs	r1, #22
 8002266:	fb01 f303 	mul.w	r3, r1, r3
 800226a:	4413      	add	r3, r2
 800226c:	781b      	ldrb	r3, [r3, #0]
 800226e:	f003 0301 	and.w	r3, r3, #1
 8002272:	73fb      	strb	r3, [r7, #15]
		p_timerx->CCMR[timer1_channel_x_config[channel].timer_x_channel_number / 2] &= ~(MASK_FOR_CLEAR_4_BIT << ((8 * temp) + 4));
 8002274:	78fb      	ldrb	r3, [r7, #3]
 8002276:	4a2c      	ldr	r2, [pc, #176]	; (8002328 <timer_channel_init+0x344>)
 8002278:	2116      	movs	r1, #22
 800227a:	fb01 f303 	mul.w	r3, r1, r3
 800227e:	4413      	add	r3, r2
 8002280:	781b      	ldrb	r3, [r3, #0]
 8002282:	085b      	lsrs	r3, r3, #1
 8002284:	b2d8      	uxtb	r0, r3
 8002286:	4602      	mov	r2, r0
 8002288:	687b      	ldr	r3, [r7, #4]
 800228a:	3206      	adds	r2, #6
 800228c:	f853 3022 	ldr.w	r3, [r3, r2, lsl #2]
 8002290:	7bfa      	ldrb	r2, [r7, #15]
 8002292:	00d2      	lsls	r2, r2, #3
 8002294:	3204      	adds	r2, #4
 8002296:	210f      	movs	r1, #15
 8002298:	fa01 f202 	lsl.w	r2, r1, r2
 800229c:	43d2      	mvns	r2, r2
 800229e:	4611      	mov	r1, r2
 80022a0:	4602      	mov	r2, r0
 80022a2:	4019      	ands	r1, r3
 80022a4:	687b      	ldr	r3, [r7, #4]
 80022a6:	3206      	adds	r2, #6
 80022a8:	f843 1022 	str.w	r1, [r3, r2, lsl #2]
		p_timerx->CCMR[timer1_channel_x_config[channel].timer_x_channel_number / 2] |= (timer1_channel_x_config[channel].input_capture_filter << ((8 * temp) + 4));
 80022ac:	78fb      	ldrb	r3, [r7, #3]
 80022ae:	4a1e      	ldr	r2, [pc, #120]	; (8002328 <timer_channel_init+0x344>)
 80022b0:	2116      	movs	r1, #22
 80022b2:	fb01 f303 	mul.w	r3, r1, r3
 80022b6:	4413      	add	r3, r2
 80022b8:	781b      	ldrb	r3, [r3, #0]
 80022ba:	085b      	lsrs	r3, r3, #1
 80022bc:	b2dc      	uxtb	r4, r3
 80022be:	4622      	mov	r2, r4
 80022c0:	687b      	ldr	r3, [r7, #4]
 80022c2:	3206      	adds	r2, #6
 80022c4:	f853 3022 	ldr.w	r3, [r3, r2, lsl #2]
 80022c8:	78fa      	ldrb	r2, [r7, #3]
 80022ca:	4917      	ldr	r1, [pc, #92]	; (8002328 <timer_channel_init+0x344>)
 80022cc:	2016      	movs	r0, #22
 80022ce:	fb00 f202 	mul.w	r2, r0, r2
 80022d2:	440a      	add	r2, r1
 80022d4:	320c      	adds	r2, #12
 80022d6:	7812      	ldrb	r2, [r2, #0]
 80022d8:	4611      	mov	r1, r2
 80022da:	7bfa      	ldrb	r2, [r7, #15]
 80022dc:	00d2      	lsls	r2, r2, #3
 80022de:	3204      	adds	r2, #4
 80022e0:	fa01 f202 	lsl.w	r2, r1, r2
 80022e4:	4611      	mov	r1, r2
 80022e6:	4622      	mov	r2, r4
 80022e8:	4319      	orrs	r1, r3
 80022ea:	687b      	ldr	r3, [r7, #4]
 80022ec:	3206      	adds	r2, #6
 80022ee:	f843 1022 	str.w	r1, [r3, r2, lsl #2]
	}


	//
	//interrupt en or di
	if (timer1_channel_x_config[channel].interrupt_en_or_di == ENABLE)
 80022f2:	78fb      	ldrb	r3, [r7, #3]
 80022f4:	4a0c      	ldr	r2, [pc, #48]	; (8002328 <timer_channel_init+0x344>)
 80022f6:	2116      	movs	r1, #22
 80022f8:	fb01 f303 	mul.w	r3, r1, r3
 80022fc:	4413      	add	r3, r2
 80022fe:	330d      	adds	r3, #13
 8002300:	781b      	ldrb	r3, [r3, #0]
 8002302:	2b01      	cmp	r3, #1
 8002304:	d112      	bne.n	800232c <timer_channel_init+0x348>
	{
		p_timerx->DIER |= timer1_channel_x_config[channel].channel_interrupt_en_or_di;
 8002306:	687b      	ldr	r3, [r7, #4]
 8002308:	68db      	ldr	r3, [r3, #12]
 800230a:	78fa      	ldrb	r2, [r7, #3]
 800230c:	4906      	ldr	r1, [pc, #24]	; (8002328 <timer_channel_init+0x344>)
 800230e:	2016      	movs	r0, #22
 8002310:	fb00 f202 	mul.w	r2, r0, r2
 8002314:	440a      	add	r2, r1
 8002316:	320e      	adds	r2, #14
 8002318:	8812      	ldrh	r2, [r2, #0]
 800231a:	431a      	orrs	r2, r3
 800231c:	687b      	ldr	r3, [r7, #4]
 800231e:	60da      	str	r2, [r3, #12]
		nvic_en_irq(TIM1_CC_IRQn);
 8002320:	201b      	movs	r0, #27
 8002322:	f7ff fe43 	bl	8001fac <nvic_en_irq>
 8002326:	e00f      	b.n	8002348 <timer_channel_init+0x364>
 8002328:	20000164 	.word	0x20000164
	}
	else
	{
		p_timerx->DIER &= ~timer1_channel_x_config[channel].channel_interrupt_en_or_di;
 800232c:	687b      	ldr	r3, [r7, #4]
 800232e:	68db      	ldr	r3, [r3, #12]
 8002330:	78fa      	ldrb	r2, [r7, #3]
 8002332:	4928      	ldr	r1, [pc, #160]	; (80023d4 <timer_channel_init+0x3f0>)
 8002334:	2016      	movs	r0, #22
 8002336:	fb00 f202 	mul.w	r2, r0, r2
 800233a:	440a      	add	r2, r1
 800233c:	320e      	adds	r2, #14
 800233e:	8812      	ldrh	r2, [r2, #0]
 8002340:	43d2      	mvns	r2, r2
 8002342:	401a      	ands	r2, r3
 8002344:	687b      	ldr	r3, [r7, #4]
 8002346:	60da      	str	r2, [r3, #12]
	}
	//dma en or di
	if (timer1_channel_x_config[channel].dma_en_or_di == ENABLE)
 8002348:	78fb      	ldrb	r3, [r7, #3]
 800234a:	4a22      	ldr	r2, [pc, #136]	; (80023d4 <timer_channel_init+0x3f0>)
 800234c:	2116      	movs	r1, #22
 800234e:	fb01 f303 	mul.w	r3, r1, r3
 8002352:	4413      	add	r3, r2
 8002354:	3310      	adds	r3, #16
 8002356:	781b      	ldrb	r3, [r3, #0]
 8002358:	2b01      	cmp	r3, #1
 800235a:	d10d      	bne.n	8002378 <timer_channel_init+0x394>
		p_timerx->DIER |= timer1_channel_x_config[channel].channel_dma_en_or_di;
 800235c:	687b      	ldr	r3, [r7, #4]
 800235e:	68db      	ldr	r3, [r3, #12]
 8002360:	78fa      	ldrb	r2, [r7, #3]
 8002362:	491c      	ldr	r1, [pc, #112]	; (80023d4 <timer_channel_init+0x3f0>)
 8002364:	2016      	movs	r0, #22
 8002366:	fb00 f202 	mul.w	r2, r0, r2
 800236a:	440a      	add	r2, r1
 800236c:	3212      	adds	r2, #18
 800236e:	8812      	ldrh	r2, [r2, #0]
 8002370:	431a      	orrs	r2, r3
 8002372:	687b      	ldr	r3, [r7, #4]
 8002374:	60da      	str	r2, [r3, #12]
 8002376:	e00d      	b.n	8002394 <timer_channel_init+0x3b0>
	else
		p_timerx->DIER &= ~timer1_channel_x_config[channel].channel_dma_en_or_di;
 8002378:	687b      	ldr	r3, [r7, #4]
 800237a:	68db      	ldr	r3, [r3, #12]
 800237c:	78fa      	ldrb	r2, [r7, #3]
 800237e:	4915      	ldr	r1, [pc, #84]	; (80023d4 <timer_channel_init+0x3f0>)
 8002380:	2016      	movs	r0, #22
 8002382:	fb00 f202 	mul.w	r2, r0, r2
 8002386:	440a      	add	r2, r1
 8002388:	3212      	adds	r2, #18
 800238a:	8812      	ldrh	r2, [r2, #0]
 800238c:	43d2      	mvns	r2, r2
 800238e:	401a      	ands	r2, r3
 8002390:	687b      	ldr	r3, [r7, #4]
 8002392:	60da      	str	r2, [r3, #12]

	//timer channel active high polarity
	p_timerx->CCER &= ~(timer1_channel_x_config[channel].polarity << OC_1_POLARITY_BIT_POSITION_CCER);
 8002394:	687b      	ldr	r3, [r7, #4]
 8002396:	6a1b      	ldr	r3, [r3, #32]
 8002398:	78fa      	ldrb	r2, [r7, #3]
 800239a:	490e      	ldr	r1, [pc, #56]	; (80023d4 <timer_channel_init+0x3f0>)
 800239c:	2016      	movs	r0, #22
 800239e:	fb00 f202 	mul.w	r2, r0, r2
 80023a2:	440a      	add	r2, r1
 80023a4:	320a      	adds	r2, #10
 80023a6:	7812      	ldrb	r2, [r2, #0]
 80023a8:	0052      	lsls	r2, r2, #1
 80023aa:	43d2      	mvns	r2, r2
 80023ac:	401a      	ands	r2, r3
 80023ae:	687b      	ldr	r3, [r7, #4]
 80023b0:	621a      	str	r2, [r3, #32]

	//timer channel EN
	p_timerx->CCER |= timer1_channel_x_config[channel].channel_to_enable;
 80023b2:	687b      	ldr	r3, [r7, #4]
 80023b4:	6a1b      	ldr	r3, [r3, #32]
 80023b6:	78fa      	ldrb	r2, [r7, #3]
 80023b8:	4906      	ldr	r1, [pc, #24]	; (80023d4 <timer_channel_init+0x3f0>)
 80023ba:	2016      	movs	r0, #22
 80023bc:	fb00 f202 	mul.w	r2, r0, r2
 80023c0:	440a      	add	r2, r1
 80023c2:	3214      	adds	r2, #20
 80023c4:	8812      	ldrh	r2, [r2, #0]
 80023c6:	431a      	orrs	r2, r3
 80023c8:	687b      	ldr	r3, [r7, #4]
 80023ca:	621a      	str	r2, [r3, #32]

}
 80023cc:	bf00      	nop
 80023ce:	3714      	adds	r7, #20
 80023d0:	46bd      	mov	sp, r7
 80023d2:	bd90      	pop	{r4, r7, pc}
 80023d4:	20000164 	.word	0x20000164

080023d8 <get_timer_flag_status>:
{
	p_timerx->CR1 &= (1 << COUNTER_EN_BIT_POSTION_CR1);
}

uint8_t get_timer_flag_status(timerx_regdef_t *p_timerx, uint8_t flag)
{
 80023d8:	b480      	push	{r7}
 80023da:	b083      	sub	sp, #12
 80023dc:	af00      	add	r7, sp, #0
 80023de:	6078      	str	r0, [r7, #4]
 80023e0:	460b      	mov	r3, r1
 80023e2:	70fb      	strb	r3, [r7, #3]
	if (p_timerx->SR & flag)
 80023e4:	687b      	ldr	r3, [r7, #4]
 80023e6:	691a      	ldr	r2, [r3, #16]
 80023e8:	78fb      	ldrb	r3, [r7, #3]
 80023ea:	4013      	ands	r3, r2
 80023ec:	2b00      	cmp	r3, #0
 80023ee:	d001      	beq.n	80023f4 <get_timer_flag_status+0x1c>
		return 1;
 80023f0:	2301      	movs	r3, #1
 80023f2:	e000      	b.n	80023f6 <get_timer_flag_status+0x1e>
	else
		return 0;
 80023f4:	2300      	movs	r3, #0
}
 80023f6:	4618      	mov	r0, r3
 80023f8:	370c      	adds	r7, #12
 80023fa:	46bd      	mov	sp, r7
 80023fc:	bc80      	pop	{r7}
 80023fe:	4770      	bx	lr

08002400 <TIM1_CC_IRQHandler>:
void TIM1_CC_IRQHandler(void)
{
 8002400:	b580      	push	{r7, lr}
 8002402:	af00      	add	r7, sp, #0
	if (get_timer_flag_status(TIMER1,TIM_DIER_CC2I_EN))
 8002404:	2104      	movs	r1, #4
 8002406:	480b      	ldr	r0, [pc, #44]	; (8002434 <TIM1_CC_IRQHandler+0x34>)
 8002408:	f7ff ffe6 	bl	80023d8 <get_timer_flag_status>
 800240c:	4603      	mov	r3, r0
 800240e:	2b00      	cmp	r3, #0
 8002410:	d00d      	beq.n	800242e <TIM1_CC_IRQHandler+0x2e>
	{
		// clear the interrupt
		TIMER1->SR &= ~(1 << 2);
 8002412:	4b08      	ldr	r3, [pc, #32]	; (8002434 <TIM1_CC_IRQHandler+0x34>)
 8002414:	691b      	ldr	r3, [r3, #16]
 8002416:	4a07      	ldr	r2, [pc, #28]	; (8002434 <TIM1_CC_IRQHandler+0x34>)
 8002418:	f023 0304 	bic.w	r3, r3, #4
 800241c:	6113      	str	r3, [r2, #16]
		// read CCR
		capture_value = TIMER1->CCR[1];
 800241e:	4b05      	ldr	r3, [pc, #20]	; (8002434 <TIM1_CC_IRQHandler+0x34>)
 8002420:	6b9b      	ldr	r3, [r3, #56]	; 0x38
 8002422:	b29a      	uxth	r2, r3
 8002424:	4b04      	ldr	r3, [pc, #16]	; (8002438 <TIM1_CC_IRQHandler+0x38>)
 8002426:	801a      	strh	r2, [r3, #0]
		flag_send_data = 1;
 8002428:	4b04      	ldr	r3, [pc, #16]	; (800243c <TIM1_CC_IRQHandler+0x3c>)
 800242a:	2201      	movs	r2, #1
 800242c:	701a      	strb	r2, [r3, #0]
		// set flag to print
	}
}
 800242e:	bf00      	nop
 8002430:	bd80      	pop	{r7, pc}
 8002432:	bf00      	nop
 8002434:	40012c00 	.word	0x40012c00
 8002438:	2000022c 	.word	0x2000022c
 800243c:	2000022e 	.word	0x2000022e

08002440 <uart_x_configure_parameter>:
uint16_t logic_counter3 = 0;
uint16_t logic_counter4 = 0;
uint16_t logic_counter5 = 0;

void uart_x_configure_parameter(usart_handle *p_usart_handle)
{
 8002440:	b480      	push	{r7}
 8002442:	b083      	sub	sp, #12
 8002444:	af00      	add	r7, sp, #0
 8002446:	6078      	str	r0, [r7, #4]
	p_usart_handle->add_of_usartx = USART2;
 8002448:	687b      	ldr	r3, [r7, #4]
 800244a:	4a0e      	ldr	r2, [pc, #56]	; (8002484 <uart_x_configure_parameter+0x44>)
 800244c:	601a      	str	r2, [r3, #0]
	//USART2Handle.Usart_Configuration.Mode = USART_MODE_TXRX;
	p_usart_handle->usart_configuration.no_of_stop_bits = USART_STOPBITS_1;
 800244e:	687b      	ldr	r3, [r7, #4]
 8002450:	2200      	movs	r2, #0
 8002452:	715a      	strb	r2, [r3, #5]
	p_usart_handle->usart_configuration.data_word_length = USART_WORDLEN_8BITS;
 8002454:	687b      	ldr	r3, [r7, #4]
 8002456:	2200      	movs	r2, #0
 8002458:	711a      	strb	r2, [r3, #4]
	p_usart_handle->usart_configuration.baudrate = USART_STD_BAUD_9600;
 800245a:	687b      	ldr	r3, [r7, #4]
 800245c:	f44f 5216 	mov.w	r2, #9600	; 0x2580
 8002460:	609a      	str	r2, [r3, #8]
	p_usart_handle->usart_configuration.parity_control = USART_PARITY_DISABLE;
 8002462:	687b      	ldr	r3, [r7, #4]
 8002464:	2200      	movs	r2, #0
 8002466:	60da      	str	r2, [r3, #12]
	//p_usart_handle->usart_configuration.dma_transmitter_en = USARTx_DMA_TRANSMITTER_EN;
	//p_usart_handle->usart_configuration.dma_receiver_en = USARTx_DMA_RECEIVER_EN;
	p_usart_handle->tx_buffer = &(tx_buffer_data[0]);
 8002468:	687b      	ldr	r3, [r7, #4]
 800246a:	4a07      	ldr	r2, [pc, #28]	; (8002488 <uart_x_configure_parameter+0x48>)
 800246c:	615a      	str	r2, [r3, #20]
	p_usart_handle->rx_buffer = &(rx_buffer_data[0]);
 800246e:	687b      	ldr	r3, [r7, #4]
 8002470:	4a06      	ldr	r2, [pc, #24]	; (800248c <uart_x_configure_parameter+0x4c>)
 8002472:	619a      	str	r2, [r3, #24]
	p_usart_handle->rx_len = 8;
 8002474:	687b      	ldr	r3, [r7, #4]
 8002476:	2208      	movs	r2, #8
 8002478:	775a      	strb	r2, [r3, #29]

}
 800247a:	bf00      	nop
 800247c:	370c      	adds	r7, #12
 800247e:	46bd      	mov	sp, r7
 8002480:	bc80      	pop	{r7}
 8002482:	4770      	bx	lr
 8002484:	40004400 	.word	0x40004400
 8002488:	20000230 	.word	0x20000230
 800248c:	20000280 	.word	0x20000280

08002490 <usart_init>:

void usart_init(usart_handle *p_usart_handle)
{
 8002490:	b580      	push	{r7, lr}
 8002492:	b082      	sub	sp, #8
 8002494:	af00      	add	r7, sp, #0
 8002496:	6078      	str	r0, [r7, #4]
	config_stop_bit(p_usart_handle->add_of_usartx,p_usart_handle->usart_configuration.no_of_stop_bits);
 8002498:	687b      	ldr	r3, [r7, #4]
 800249a:	681a      	ldr	r2, [r3, #0]
 800249c:	687b      	ldr	r3, [r7, #4]
 800249e:	795b      	ldrb	r3, [r3, #5]
 80024a0:	4619      	mov	r1, r3
 80024a2:	4610      	mov	r0, r2
 80024a4:	f000 f8a9 	bl	80025fa <config_stop_bit>

	config_data_word_len(p_usart_handle->add_of_usartx,p_usart_handle->usart_configuration.data_word_length);
 80024a8:	687b      	ldr	r3, [r7, #4]
 80024aa:	681a      	ldr	r2, [r3, #0]
 80024ac:	687b      	ldr	r3, [r7, #4]
 80024ae:	791b      	ldrb	r3, [r3, #4]
 80024b0:	4619      	mov	r1, r3
 80024b2:	4610      	mov	r0, r2
 80024b4:	f000 f8b9 	bl	800262a <config_data_word_len>

	config_parity(p_usart_handle->add_of_usartx,p_usart_handle->usart_configuration.parity_control);
 80024b8:	687b      	ldr	r3, [r7, #4]
 80024ba:	681a      	ldr	r2, [r3, #0]
 80024bc:	687b      	ldr	r3, [r7, #4]
 80024be:	68db      	ldr	r3, [r3, #12]
 80024c0:	b2db      	uxtb	r3, r3
 80024c2:	4619      	mov	r1, r3
 80024c4:	4610      	mov	r0, r2
 80024c6:	f000 f8c2 	bl	800264e <config_parity>

	//config_mode(p_usart_handle->add_of_usartx,p_usart_handle->usart_configuration.mode);

	usart_set_baudrate(p_usart_handle->add_of_usartx,p_usart_handle->usart_configuration.baudrate);
 80024ca:	687b      	ldr	r3, [r7, #4]
 80024cc:	681a      	ldr	r2, [r3, #0]
 80024ce:	687b      	ldr	r3, [r7, #4]
 80024d0:	689b      	ldr	r3, [r3, #8]
 80024d2:	4619      	mov	r1, r3
 80024d4:	4610      	mov	r0, r2
 80024d6:	f000 f81f 	bl	8002518 <usart_set_baudrate>

	usart_dma_mode_en_di(p_usart_handle->add_of_usartx,p_usart_handle->usart_configuration.dma_transmitter_en);
 80024da:	687b      	ldr	r3, [r7, #4]
 80024dc:	681a      	ldr	r2, [r3, #0]
 80024de:	687b      	ldr	r3, [r7, #4]
 80024e0:	7c1b      	ldrb	r3, [r3, #16]
 80024e2:	4619      	mov	r1, r3
 80024e4:	4610      	mov	r0, r2
 80024e6:	f000 fa07 	bl	80028f8 <usart_dma_mode_en_di>

	usart_dma_mode_en_di(p_usart_handle->add_of_usartx,p_usart_handle->usart_configuration.dma_receiver_en);
 80024ea:	687b      	ldr	r3, [r7, #4]
 80024ec:	681a      	ldr	r2, [r3, #0]
 80024ee:	687b      	ldr	r3, [r7, #4]
 80024f0:	7c5b      	ldrb	r3, [r3, #17]
 80024f2:	4619      	mov	r1, r3
 80024f4:	4610      	mov	r0, r2
 80024f6:	f000 f9ff 	bl	80028f8 <usart_dma_mode_en_di>

	usart_en(p_usart_handle->add_of_usartx);
 80024fa:	687b      	ldr	r3, [r7, #4]
 80024fc:	681b      	ldr	r3, [r3, #0]
 80024fe:	4618      	mov	r0, r3
 8002500:	f000 f86c 	bl	80025dc <usart_en>

	//usart_read_interrupt(p_usart_handle->add_of_usartx);

	usart_rx_en(p_usart_handle->add_of_usartx);
 8002504:	687b      	ldr	r3, [r7, #4]
 8002506:	681b      	ldr	r3, [r3, #0]
 8002508:	4618      	mov	r0, r3
 800250a:	f000 f9e5 	bl	80028d8 <usart_rx_en>
}
 800250e:	bf00      	nop
 8002510:	3708      	adds	r7, #8
 8002512:	46bd      	mov	sp, r7
 8002514:	bd80      	pop	{r7, pc}
	...

08002518 <usart_set_baudrate>:

void usart_set_baudrate(usartx_regdef_t *p_usartx,uint32_t baudrate)
{
 8002518:	b5b0      	push	{r4, r5, r7, lr}
 800251a:	b088      	sub	sp, #32
 800251c:	af00      	add	r7, sp, #0
 800251e:	6078      	str	r0, [r7, #4]
 8002520:	6039      	str	r1, [r7, #0]
	 * USARTDIV is an unsigned fixed point number that is coded on the USART_BRR register.
	 */
	float temp,fraction;
	uint32_t mantissa;
	// TO DO: ADD CONDITION FOR CHECKING WHICH UART IT IS BEFORE GETTING THE CLOCK OF THE PERIPHERAL.
	uint32_t pclk = apb_get_clock(APB1); // It gets the Clock source for mentioned APB.
 8002522:	2001      	movs	r0, #1
 8002524:	f7fe fe0c 	bl	8001140 <apb_get_clock>
 8002528:	6178      	str	r0, [r7, #20]
	uint32_t div_fraction;
	temp = pclk / (16.0 * baudrate);
 800252a:	6978      	ldr	r0, [r7, #20]
 800252c:	f7fe f816 	bl	800055c <__aeabi_ui2d>
 8002530:	4604      	mov	r4, r0
 8002532:	460d      	mov	r5, r1
 8002534:	6838      	ldr	r0, [r7, #0]
 8002536:	f7fe f811 	bl	800055c <__aeabi_ui2d>
 800253a:	f04f 0200 	mov.w	r2, #0
 800253e:	4b26      	ldr	r3, [pc, #152]	; (80025d8 <usart_set_baudrate+0xc0>)
 8002540:	f7fe f886 	bl	8000650 <__aeabi_dmul>
 8002544:	4602      	mov	r2, r0
 8002546:	460b      	mov	r3, r1
 8002548:	4620      	mov	r0, r4
 800254a:	4629      	mov	r1, r5
 800254c:	f7fe f9aa 	bl	80008a4 <__aeabi_ddiv>
 8002550:	4602      	mov	r2, r0
 8002552:	460b      	mov	r3, r1
 8002554:	4610      	mov	r0, r2
 8002556:	4619      	mov	r1, r3
 8002558:	f7fe fa8c 	bl	8000a74 <__aeabi_d2f>
 800255c:	4603      	mov	r3, r0
 800255e:	613b      	str	r3, [r7, #16]
	fraction = temp - (int)temp;
 8002560:	6938      	ldr	r0, [r7, #16]
 8002562:	f7fe fc5b 	bl	8000e1c <__aeabi_f2iz>
 8002566:	4603      	mov	r3, r0
 8002568:	4618      	mov	r0, r3
 800256a:	f7fe fb8d 	bl	8000c88 <__aeabi_i2f>
 800256e:	4603      	mov	r3, r0
 8002570:	4619      	mov	r1, r3
 8002572:	6938      	ldr	r0, [r7, #16]
 8002574:	f7fe fad2 	bl	8000b1c <__aeabi_fsub>
 8002578:	4603      	mov	r3, r0
 800257a:	60fb      	str	r3, [r7, #12]
	mantissa = temp - fraction;
 800257c:	68f9      	ldr	r1, [r7, #12]
 800257e:	6938      	ldr	r0, [r7, #16]
 8002580:	f7fe facc 	bl	8000b1c <__aeabi_fsub>
 8002584:	4603      	mov	r3, r0
 8002586:	4618      	mov	r0, r3
 8002588:	f7fe fc6e 	bl	8000e68 <__aeabi_f2uiz>
 800258c:	4603      	mov	r3, r0
 800258e:	61fb      	str	r3, [r7, #28]

	div_fraction = round_off((16 * fraction)); // Function to round off the decimal number
 8002590:	f04f 4183 	mov.w	r1, #1098907648	; 0x41800000
 8002594:	68f8      	ldr	r0, [r7, #12]
 8002596:	f7fd fdeb 	bl	8000170 <__aeabi_fmul>
 800259a:	4603      	mov	r3, r0
 800259c:	4618      	mov	r0, r3
 800259e:	f000 fa1d 	bl	80029dc <round_off>
 80025a2:	61b8      	str	r0, [r7, #24]
	if (div_fraction > 15)
 80025a4:	69bb      	ldr	r3, [r7, #24]
 80025a6:	2b0f      	cmp	r3, #15
 80025a8:	d904      	bls.n	80025b4 <usart_set_baudrate+0x9c>
	{
		div_fraction = 0;
 80025aa:	2300      	movs	r3, #0
 80025ac:	61bb      	str	r3, [r7, #24]
		mantissa += 1;
 80025ae:	69fb      	ldr	r3, [r7, #28]
 80025b0:	3301      	adds	r3, #1
 80025b2:	61fb      	str	r3, [r7, #28]
	}
	p_usartx->BRR |= (mantissa << 4);
 80025b4:	687b      	ldr	r3, [r7, #4]
 80025b6:	689a      	ldr	r2, [r3, #8]
 80025b8:	69fb      	ldr	r3, [r7, #28]
 80025ba:	011b      	lsls	r3, r3, #4
 80025bc:	431a      	orrs	r2, r3
 80025be:	687b      	ldr	r3, [r7, #4]
 80025c0:	609a      	str	r2, [r3, #8]
	p_usartx->BRR |= div_fraction;
 80025c2:	687b      	ldr	r3, [r7, #4]
 80025c4:	689a      	ldr	r2, [r3, #8]
 80025c6:	69bb      	ldr	r3, [r7, #24]
 80025c8:	431a      	orrs	r2, r3
 80025ca:	687b      	ldr	r3, [r7, #4]
 80025cc:	609a      	str	r2, [r3, #8]
}
 80025ce:	bf00      	nop
 80025d0:	3720      	adds	r7, #32
 80025d2:	46bd      	mov	sp, r7
 80025d4:	bdb0      	pop	{r4, r5, r7, pc}
 80025d6:	bf00      	nop
 80025d8:	40300000 	.word	0x40300000

080025dc <usart_en>:
		}
	}
}

void usart_en(usartx_regdef_t* p_usartx)
{
 80025dc:	b480      	push	{r7}
 80025de:	b083      	sub	sp, #12
 80025e0:	af00      	add	r7, sp, #0
 80025e2:	6078      	str	r0, [r7, #4]
	p_usartx->CR1 |= (1 << USART_CR1_EN);
 80025e4:	687b      	ldr	r3, [r7, #4]
 80025e6:	68db      	ldr	r3, [r3, #12]
 80025e8:	f443 5200 	orr.w	r2, r3, #8192	; 0x2000
 80025ec:	687b      	ldr	r3, [r7, #4]
 80025ee:	60da      	str	r2, [r3, #12]
}
 80025f0:	bf00      	nop
 80025f2:	370c      	adds	r7, #12
 80025f4:	46bd      	mov	sp, r7
 80025f6:	bc80      	pop	{r7}
 80025f8:	4770      	bx	lr

080025fa <config_stop_bit>:

void config_stop_bit(usartx_regdef_t* p_usartx, uint8_t stop_bits)
{
 80025fa:	b480      	push	{r7}
 80025fc:	b083      	sub	sp, #12
 80025fe:	af00      	add	r7, sp, #0
 8002600:	6078      	str	r0, [r7, #4]
 8002602:	460b      	mov	r3, r1
 8002604:	70fb      	strb	r3, [r7, #3]
	p_usartx->CR2 &=  ~(STOP_BIT_MASK());
 8002606:	687b      	ldr	r3, [r7, #4]
 8002608:	691b      	ldr	r3, [r3, #16]
 800260a:	f423 5240 	bic.w	r2, r3, #12288	; 0x3000
 800260e:	687b      	ldr	r3, [r7, #4]
 8002610:	611a      	str	r2, [r3, #16]
	p_usartx->CR2 |=  (stop_bits << USART_CR2_STOP_BIT);
 8002612:	687b      	ldr	r3, [r7, #4]
 8002614:	691b      	ldr	r3, [r3, #16]
 8002616:	78fa      	ldrb	r2, [r7, #3]
 8002618:	0312      	lsls	r2, r2, #12
 800261a:	431a      	orrs	r2, r3
 800261c:	687b      	ldr	r3, [r7, #4]
 800261e:	611a      	str	r2, [r3, #16]
}
 8002620:	bf00      	nop
 8002622:	370c      	adds	r7, #12
 8002624:	46bd      	mov	sp, r7
 8002626:	bc80      	pop	{r7}
 8002628:	4770      	bx	lr

0800262a <config_data_word_len>:

void config_data_word_len(usartx_regdef_t* p_usartx, uint8_t data_word_len)
{
 800262a:	b480      	push	{r7}
 800262c:	b083      	sub	sp, #12
 800262e:	af00      	add	r7, sp, #0
 8002630:	6078      	str	r0, [r7, #4]
 8002632:	460b      	mov	r3, r1
 8002634:	70fb      	strb	r3, [r7, #3]
	p_usartx->CR1 |= (data_word_len << USART_CR1_DATA_WORD_LEN);
 8002636:	687b      	ldr	r3, [r7, #4]
 8002638:	68db      	ldr	r3, [r3, #12]
 800263a:	78fa      	ldrb	r2, [r7, #3]
 800263c:	0312      	lsls	r2, r2, #12
 800263e:	431a      	orrs	r2, r3
 8002640:	687b      	ldr	r3, [r7, #4]
 8002642:	60da      	str	r2, [r3, #12]
}
 8002644:	bf00      	nop
 8002646:	370c      	adds	r7, #12
 8002648:	46bd      	mov	sp, r7
 800264a:	bc80      	pop	{r7}
 800264c:	4770      	bx	lr

0800264e <config_parity>:

void config_parity(usartx_regdef_t* p_usartx, uint8_t parity_type)
{
 800264e:	b480      	push	{r7}
 8002650:	b083      	sub	sp, #12
 8002652:	af00      	add	r7, sp, #0
 8002654:	6078      	str	r0, [r7, #4]
 8002656:	460b      	mov	r3, r1
 8002658:	70fb      	strb	r3, [r7, #3]
	if (parity_type == USART_PARITY_EN_EVEN)
 800265a:	78fb      	ldrb	r3, [r7, #3]
 800265c:	2b01      	cmp	r3, #1
 800265e:	d106      	bne.n	800266e <config_parity+0x20>
	{
		p_usartx->CR1 |= (1 << USART_CR1_PARITY_CONTROL_EN); // Enabled the Parity Control, Even Parity Bydefault Selected.
 8002660:	687b      	ldr	r3, [r7, #4]
 8002662:	68db      	ldr	r3, [r3, #12]
 8002664:	f443 6280 	orr.w	r2, r3, #1024	; 0x400
 8002668:	687b      	ldr	r3, [r7, #4]
 800266a:	60da      	str	r2, [r3, #12]
	}
	else if(parity_type == USART_PARITY_EN_ODD)
	{
		p_usartx->CR1 |= ( (1 << USART_CR1_PARITY_CONTROL_EN) | (1 << USART_CR1_PARITY_SELECT) );
	}
}
 800266c:	e008      	b.n	8002680 <config_parity+0x32>
	else if(parity_type == USART_PARITY_EN_ODD)
 800266e:	78fb      	ldrb	r3, [r7, #3]
 8002670:	2b02      	cmp	r3, #2
 8002672:	d105      	bne.n	8002680 <config_parity+0x32>
		p_usartx->CR1 |= ( (1 << USART_CR1_PARITY_CONTROL_EN) | (1 << USART_CR1_PARITY_SELECT) );
 8002674:	687b      	ldr	r3, [r7, #4]
 8002676:	68db      	ldr	r3, [r3, #12]
 8002678:	f443 62c0 	orr.w	r2, r3, #1536	; 0x600
 800267c:	687b      	ldr	r3, [r7, #4]
 800267e:	60da      	str	r2, [r3, #12]
}
 8002680:	bf00      	nop
 8002682:	370c      	adds	r7, #12
 8002684:	46bd      	mov	sp, r7
 8002686:	bc80      	pop	{r7}
 8002688:	4770      	bx	lr

0800268a <get_flag_status>:
		p_usartx->CR1 |= ( (1 << USART_CR1_TX_EN) | (1 << USART_CR1_RX_EN) );
	}
}

uint8_t get_flag_status(usartx_regdef_t *p_usartx, uint8_t flag)
{
 800268a:	b480      	push	{r7}
 800268c:	b083      	sub	sp, #12
 800268e:	af00      	add	r7, sp, #0
 8002690:	6078      	str	r0, [r7, #4]
 8002692:	460b      	mov	r3, r1
 8002694:	70fb      	strb	r3, [r7, #3]
	if (p_usartx->SR & flag)
 8002696:	687b      	ldr	r3, [r7, #4]
 8002698:	681a      	ldr	r2, [r3, #0]
 800269a:	78fb      	ldrb	r3, [r7, #3]
 800269c:	4013      	ands	r3, r2
 800269e:	2b00      	cmp	r3, #0
 80026a0:	d001      	beq.n	80026a6 <get_flag_status+0x1c>
	{
		return 1;
 80026a2:	2301      	movs	r3, #1
 80026a4:	e000      	b.n	80026a8 <get_flag_status+0x1e>
	}
	else
	{
		return 0;
 80026a6:	2300      	movs	r3, #0
	}
}
 80026a8:	4618      	mov	r0, r3
 80026aa:	370c      	adds	r7, #12
 80026ac:	46bd      	mov	sp, r7
 80026ae:	bc80      	pop	{r7}
 80026b0:	4770      	bx	lr
	...

080026b4 <usart_interrupt_handling>:

}


void usart_interrupt_handling(usart_handle *p_usart_handle)
{
 80026b4:	b580      	push	{r7, lr}
 80026b6:	b084      	sub	sp, #16
 80026b8:	af00      	add	r7, sp, #0
 80026ba:	6078      	str	r0, [r7, #4]
	if (get_flag_status(p_usart_handle->add_of_usartx,USART_FLAG_TC) == 1)
 80026bc:	687b      	ldr	r3, [r7, #4]
 80026be:	681b      	ldr	r3, [r3, #0]
 80026c0:	2140      	movs	r1, #64	; 0x40
 80026c2:	4618      	mov	r0, r3
 80026c4:	f7ff ffe1 	bl	800268a <get_flag_status>
 80026c8:	4603      	mov	r3, r0
 80026ca:	2b01      	cmp	r3, #1
 80026cc:	d128      	bne.n	8002720 <usart_interrupt_handling+0x6c>
	{
		tc_buffer[tc_buffer_index++] = *(p_usart_handle->tx_buffer);
 80026ce:	687b      	ldr	r3, [r7, #4]
 80026d0:	695a      	ldr	r2, [r3, #20]
 80026d2:	4b7c      	ldr	r3, [pc, #496]	; (80028c4 <usart_interrupt_handling+0x210>)
 80026d4:	781b      	ldrb	r3, [r3, #0]
 80026d6:	1c59      	adds	r1, r3, #1
 80026d8:	b2c8      	uxtb	r0, r1
 80026da:	497a      	ldr	r1, [pc, #488]	; (80028c4 <usart_interrupt_handling+0x210>)
 80026dc:	7008      	strb	r0, [r1, #0]
 80026de:	4619      	mov	r1, r3
 80026e0:	7812      	ldrb	r2, [r2, #0]
 80026e2:	4b79      	ldr	r3, [pc, #484]	; (80028c8 <usart_interrupt_handling+0x214>)
 80026e4:	545a      	strb	r2, [r3, r1]
		if (*(p_usart_handle->tx_buffer) == '\0')
 80026e6:	687b      	ldr	r3, [r7, #4]
 80026e8:	695b      	ldr	r3, [r3, #20]
 80026ea:	781b      	ldrb	r3, [r3, #0]
 80026ec:	2b00      	cmp	r3, #0
 80026ee:	d117      	bne.n	8002720 <usart_interrupt_handling+0x6c>
		{
			p_usart_handle->add_of_usartx->CR1 &= ~(1 << USART_CR1_TXE_INTEERUPT_EN);
 80026f0:	687b      	ldr	r3, [r7, #4]
 80026f2:	681b      	ldr	r3, [r3, #0]
 80026f4:	68da      	ldr	r2, [r3, #12]
 80026f6:	687b      	ldr	r3, [r7, #4]
 80026f8:	681b      	ldr	r3, [r3, #0]
 80026fa:	f022 0280 	bic.w	r2, r2, #128	; 0x80
 80026fe:	60da      	str	r2, [r3, #12]
			p_usart_handle->add_of_usartx->CR1 &= ~(1 << USART_CR1_TC_INTERRUPT_EN);
 8002700:	687b      	ldr	r3, [r7, #4]
 8002702:	681b      	ldr	r3, [r3, #0]
 8002704:	68da      	ldr	r2, [r3, #12]
 8002706:	687b      	ldr	r3, [r7, #4]
 8002708:	681b      	ldr	r3, [r3, #0]
 800270a:	f022 0240 	bic.w	r2, r2, #64	; 0x40
 800270e:	60da      	str	r2, [r3, #12]
			p_usart_handle->add_of_usartx->CR1 &= ~(1 << USART_CR1_TX_EN);
 8002710:	687b      	ldr	r3, [r7, #4]
 8002712:	681b      	ldr	r3, [r3, #0]
 8002714:	68da      	ldr	r2, [r3, #12]
 8002716:	687b      	ldr	r3, [r7, #4]
 8002718:	681b      	ldr	r3, [r3, #0]
 800271a:	f022 0208 	bic.w	r2, r2, #8
 800271e:	60da      	str	r2, [r3, #12]
		}
	}
	if (get_flag_status(p_usart_handle->add_of_usartx,USART_FLAG_TXE) == 1)
 8002720:	687b      	ldr	r3, [r7, #4]
 8002722:	681b      	ldr	r3, [r3, #0]
 8002724:	2180      	movs	r1, #128	; 0x80
 8002726:	4618      	mov	r0, r3
 8002728:	f7ff ffaf 	bl	800268a <get_flag_status>
 800272c:	4603      	mov	r3, r0
 800272e:	2b01      	cmp	r3, #1
 8002730:	d158      	bne.n	80027e4 <usart_interrupt_handling+0x130>
	{
		txe_counter++;
 8002732:	4b66      	ldr	r3, [pc, #408]	; (80028cc <usart_interrupt_handling+0x218>)
 8002734:	781b      	ldrb	r3, [r3, #0]
 8002736:	3301      	adds	r3, #1
 8002738:	b2da      	uxtb	r2, r3
 800273a:	4b64      	ldr	r3, [pc, #400]	; (80028cc <usart_interrupt_handling+0x218>)
 800273c:	701a      	strb	r2, [r3, #0]
		txe_buffer[txe_buffer_index++] = *(p_usart_handle->tx_buffer);
 800273e:	687b      	ldr	r3, [r7, #4]
 8002740:	695a      	ldr	r2, [r3, #20]
 8002742:	4b63      	ldr	r3, [pc, #396]	; (80028d0 <usart_interrupt_handling+0x21c>)
 8002744:	781b      	ldrb	r3, [r3, #0]
 8002746:	1c59      	adds	r1, r3, #1
 8002748:	b2c8      	uxtb	r0, r1
 800274a:	4961      	ldr	r1, [pc, #388]	; (80028d0 <usart_interrupt_handling+0x21c>)
 800274c:	7008      	strb	r0, [r1, #0]
 800274e:	4619      	mov	r1, r3
 8002750:	7812      	ldrb	r2, [r2, #0]
 8002752:	4b60      	ldr	r3, [pc, #384]	; (80028d4 <usart_interrupt_handling+0x220>)
 8002754:	545a      	strb	r2, [r3, r1]
		if (*(p_usart_handle->tx_buffer) != '\0')
 8002756:	687b      	ldr	r3, [r7, #4]
 8002758:	695b      	ldr	r3, [r3, #20]
 800275a:	781b      	ldrb	r3, [r3, #0]
 800275c:	2b00      	cmp	r3, #0
 800275e:	d039      	beq.n	80027d4 <usart_interrupt_handling+0x120>
		{
			if (p_usart_handle->usart_configuration.data_word_length == USART_WORDLEN_9BITS)
 8002760:	687b      	ldr	r3, [r7, #4]
 8002762:	791b      	ldrb	r3, [r3, #4]
 8002764:	2b01      	cmp	r3, #1
 8002766:	d125      	bne.n	80027b4 <usart_interrupt_handling+0x100>
			{
				// IF Parity DISABLED
				if (p_usart_handle->usart_configuration.parity_control == USART_PARITY_DISABLE)
 8002768:	687b      	ldr	r3, [r7, #4]
 800276a:	68db      	ldr	r3, [r3, #12]
 800276c:	2b00      	cmp	r3, #0
 800276e:	d115      	bne.n	800279c <usart_interrupt_handling+0xe8>
				{
					uint16_t *p_data = (uint16_t*)p_usart_handle->tx_buffer;
 8002770:	687b      	ldr	r3, [r7, #4]
 8002772:	695b      	ldr	r3, [r3, #20]
 8002774:	60fb      	str	r3, [r7, #12]
					p_usart_handle->add_of_usartx->DR = (*(p_data) & (uint16_t)0x1FF);
 8002776:	68fb      	ldr	r3, [r7, #12]
 8002778:	881b      	ldrh	r3, [r3, #0]
 800277a:	461a      	mov	r2, r3
 800277c:	687b      	ldr	r3, [r7, #4]
 800277e:	681b      	ldr	r3, [r3, #0]
 8002780:	f3c2 0208 	ubfx	r2, r2, #0, #9
 8002784:	605a      	str	r2, [r3, #4]
					p_usart_handle->tx_buffer++;
 8002786:	687b      	ldr	r3, [r7, #4]
 8002788:	695b      	ldr	r3, [r3, #20]
 800278a:	1c5a      	adds	r2, r3, #1
 800278c:	687b      	ldr	r3, [r7, #4]
 800278e:	615a      	str	r2, [r3, #20]
					p_usart_handle->tx_buffer++;
 8002790:	687b      	ldr	r3, [r7, #4]
 8002792:	695b      	ldr	r3, [r3, #20]
 8002794:	1c5a      	adds	r2, r3, #1
 8002796:	687b      	ldr	r3, [r7, #4]
 8002798:	615a      	str	r2, [r3, #20]
 800279a:	e023      	b.n	80027e4 <usart_interrupt_handling+0x130>
				}
				// IF Parity ENABLED
				else
				{
					p_usart_handle->add_of_usartx->DR = (*(p_usart_handle->tx_buffer) & (uint8_t)0xFF);
 800279c:	687b      	ldr	r3, [r7, #4]
 800279e:	695b      	ldr	r3, [r3, #20]
 80027a0:	781a      	ldrb	r2, [r3, #0]
 80027a2:	687b      	ldr	r3, [r7, #4]
 80027a4:	681b      	ldr	r3, [r3, #0]
 80027a6:	605a      	str	r2, [r3, #4]
					p_usart_handle->tx_buffer++;
 80027a8:	687b      	ldr	r3, [r7, #4]
 80027aa:	695b      	ldr	r3, [r3, #20]
 80027ac:	1c5a      	adds	r2, r3, #1
 80027ae:	687b      	ldr	r3, [r7, #4]
 80027b0:	615a      	str	r2, [r3, #20]
 80027b2:	e017      	b.n	80027e4 <usart_interrupt_handling+0x130>
				}
			}
			else if (p_usart_handle->usart_configuration.data_word_length == USART_WORDLEN_8BITS)
 80027b4:	687b      	ldr	r3, [r7, #4]
 80027b6:	791b      	ldrb	r3, [r3, #4]
 80027b8:	2b00      	cmp	r3, #0
 80027ba:	d113      	bne.n	80027e4 <usart_interrupt_handling+0x130>
			{
				p_usart_handle->add_of_usartx->DR = (*p_usart_handle->tx_buffer);
 80027bc:	687b      	ldr	r3, [r7, #4]
 80027be:	695b      	ldr	r3, [r3, #20]
 80027c0:	781a      	ldrb	r2, [r3, #0]
 80027c2:	687b      	ldr	r3, [r7, #4]
 80027c4:	681b      	ldr	r3, [r3, #0]
 80027c6:	605a      	str	r2, [r3, #4]
				p_usart_handle->tx_buffer++;
 80027c8:	687b      	ldr	r3, [r7, #4]
 80027ca:	695b      	ldr	r3, [r3, #20]
 80027cc:	1c5a      	adds	r2, r3, #1
 80027ce:	687b      	ldr	r3, [r7, #4]
 80027d0:	615a      	str	r2, [r3, #20]
 80027d2:	e007      	b.n	80027e4 <usart_interrupt_handling+0x130>
			}
		}
		else
		{
			p_usart_handle->add_of_usartx->CR1 &= ~(1 << USART_CR1_TXE_INTEERUPT_EN);
 80027d4:	687b      	ldr	r3, [r7, #4]
 80027d6:	681b      	ldr	r3, [r3, #0]
 80027d8:	68da      	ldr	r2, [r3, #12]
 80027da:	687b      	ldr	r3, [r7, #4]
 80027dc:	681b      	ldr	r3, [r3, #0]
 80027de:	f022 0280 	bic.w	r2, r2, #128	; 0x80
 80027e2:	60da      	str	r2, [r3, #12]
		}
	}
	if (get_flag_status(p_usart_handle->add_of_usartx,USART_FLAG_RXNE) == 1)
 80027e4:	687b      	ldr	r3, [r7, #4]
 80027e6:	681b      	ldr	r3, [r3, #0]
 80027e8:	2120      	movs	r1, #32
 80027ea:	4618      	mov	r0, r3
 80027ec:	f7ff ff4d 	bl	800268a <get_flag_status>
 80027f0:	4603      	mov	r3, r0
 80027f2:	2b01      	cmp	r3, #1
 80027f4:	d161      	bne.n	80028ba <usart_interrupt_handling+0x206>
	{
		if (p_usart_handle->rx_len > 0)
 80027f6:	687b      	ldr	r3, [r7, #4]
 80027f8:	7f5b      	ldrb	r3, [r3, #29]
 80027fa:	2b00      	cmp	r3, #0
 80027fc:	d051      	beq.n	80028a2 <usart_interrupt_handling+0x1ee>
		{
			if (p_usart_handle->usart_configuration.data_word_length == USART_WORDLEN_9BITS)
 80027fe:	687b      	ldr	r3, [r7, #4]
 8002800:	791b      	ldrb	r3, [r3, #4]
 8002802:	2b01      	cmp	r3, #1
 8002804:	d125      	bne.n	8002852 <usart_interrupt_handling+0x19e>
			{
				if (p_usart_handle->usart_configuration.parity_control == USART_PARITY_DISABLE)
 8002806:	687b      	ldr	r3, [r7, #4]
 8002808:	68db      	ldr	r3, [r3, #12]
 800280a:	2b00      	cmp	r3, #0
 800280c:	d114      	bne.n	8002838 <usart_interrupt_handling+0x184>
				{
					//*((uint16_t*)(p_usart_handle->rx_buffer)) = ((uint16_t*)(p_usart_handle->add_of_usartx->DR & 0x1FF));
					*((uint16_t*)(p_usart_handle->rx_buffer)) = (p_usart_handle->add_of_usartx->DR & 0x1FF);
 800280e:	687b      	ldr	r3, [r7, #4]
 8002810:	681b      	ldr	r3, [r3, #0]
 8002812:	685b      	ldr	r3, [r3, #4]
 8002814:	b29a      	uxth	r2, r3
 8002816:	687b      	ldr	r3, [r7, #4]
 8002818:	699b      	ldr	r3, [r3, #24]
 800281a:	f3c2 0208 	ubfx	r2, r2, #0, #9
 800281e:	b292      	uxth	r2, r2
 8002820:	801a      	strh	r2, [r3, #0]
					p_usart_handle->rx_buffer++;
 8002822:	687b      	ldr	r3, [r7, #4]
 8002824:	699b      	ldr	r3, [r3, #24]
 8002826:	1c5a      	adds	r2, r3, #1
 8002828:	687b      	ldr	r3, [r7, #4]
 800282a:	619a      	str	r2, [r3, #24]
					p_usart_handle->rx_buffer++;
 800282c:	687b      	ldr	r3, [r7, #4]
 800282e:	699b      	ldr	r3, [r3, #24]
 8002830:	1c5a      	adds	r2, r3, #1
 8002832:	687b      	ldr	r3, [r7, #4]
 8002834:	619a      	str	r2, [r3, #24]
		else if (p_usart_handle->rx_len == 0)
		{
			p_usart_handle->add_of_usartx->CR1 &= ~(1 << USART_CR1_RXNE_INTERRUPT_EN);
		}
	}
}
 8002836:	e040      	b.n	80028ba <usart_interrupt_handling+0x206>
					*(p_usart_handle->rx_buffer) = (p_usart_handle->add_of_usartx->DR & 0xFF);
 8002838:	687b      	ldr	r3, [r7, #4]
 800283a:	681b      	ldr	r3, [r3, #0]
 800283c:	685a      	ldr	r2, [r3, #4]
 800283e:	687b      	ldr	r3, [r7, #4]
 8002840:	699b      	ldr	r3, [r3, #24]
 8002842:	b2d2      	uxtb	r2, r2
 8002844:	701a      	strb	r2, [r3, #0]
					p_usart_handle->rx_buffer++;
 8002846:	687b      	ldr	r3, [r7, #4]
 8002848:	699b      	ldr	r3, [r3, #24]
 800284a:	1c5a      	adds	r2, r3, #1
 800284c:	687b      	ldr	r3, [r7, #4]
 800284e:	619a      	str	r2, [r3, #24]
}
 8002850:	e033      	b.n	80028ba <usart_interrupt_handling+0x206>
			else if (p_usart_handle->usart_configuration.data_word_length == USART_WORDLEN_8BITS)
 8002852:	687b      	ldr	r3, [r7, #4]
 8002854:	791b      	ldrb	r3, [r3, #4]
 8002856:	2b00      	cmp	r3, #0
 8002858:	d12f      	bne.n	80028ba <usart_interrupt_handling+0x206>
				if (p_usart_handle->usart_configuration.parity_control == USART_PARITY_DISABLE)
 800285a:	687b      	ldr	r3, [r7, #4]
 800285c:	68db      	ldr	r3, [r3, #12]
 800285e:	2b00      	cmp	r3, #0
 8002860:	d112      	bne.n	8002888 <usart_interrupt_handling+0x1d4>
					*(p_usart_handle->rx_buffer) = (p_usart_handle->add_of_usartx->DR & 0xFF);
 8002862:	687b      	ldr	r3, [r7, #4]
 8002864:	681b      	ldr	r3, [r3, #0]
 8002866:	685a      	ldr	r2, [r3, #4]
 8002868:	687b      	ldr	r3, [r7, #4]
 800286a:	699b      	ldr	r3, [r3, #24]
 800286c:	b2d2      	uxtb	r2, r2
 800286e:	701a      	strb	r2, [r3, #0]
					p_usart_handle->rx_buffer++;
 8002870:	687b      	ldr	r3, [r7, #4]
 8002872:	699b      	ldr	r3, [r3, #24]
 8002874:	1c5a      	adds	r2, r3, #1
 8002876:	687b      	ldr	r3, [r7, #4]
 8002878:	619a      	str	r2, [r3, #24]
					p_usart_handle->rx_len--;
 800287a:	687b      	ldr	r3, [r7, #4]
 800287c:	7f5b      	ldrb	r3, [r3, #29]
 800287e:	3b01      	subs	r3, #1
 8002880:	b2da      	uxtb	r2, r3
 8002882:	687b      	ldr	r3, [r7, #4]
 8002884:	775a      	strb	r2, [r3, #29]
}
 8002886:	e018      	b.n	80028ba <usart_interrupt_handling+0x206>
					*(p_usart_handle->rx_buffer) = (p_usart_handle->add_of_usartx->DR & 0xFF);
 8002888:	687b      	ldr	r3, [r7, #4]
 800288a:	681b      	ldr	r3, [r3, #0]
 800288c:	685a      	ldr	r2, [r3, #4]
 800288e:	687b      	ldr	r3, [r7, #4]
 8002890:	699b      	ldr	r3, [r3, #24]
 8002892:	b2d2      	uxtb	r2, r2
 8002894:	701a      	strb	r2, [r3, #0]
					p_usart_handle->rx_buffer++;
 8002896:	687b      	ldr	r3, [r7, #4]
 8002898:	699b      	ldr	r3, [r3, #24]
 800289a:	1c5a      	adds	r2, r3, #1
 800289c:	687b      	ldr	r3, [r7, #4]
 800289e:	619a      	str	r2, [r3, #24]
}
 80028a0:	e00b      	b.n	80028ba <usart_interrupt_handling+0x206>
		else if (p_usart_handle->rx_len == 0)
 80028a2:	687b      	ldr	r3, [r7, #4]
 80028a4:	7f5b      	ldrb	r3, [r3, #29]
 80028a6:	2b00      	cmp	r3, #0
 80028a8:	d107      	bne.n	80028ba <usart_interrupt_handling+0x206>
			p_usart_handle->add_of_usartx->CR1 &= ~(1 << USART_CR1_RXNE_INTERRUPT_EN);
 80028aa:	687b      	ldr	r3, [r7, #4]
 80028ac:	681b      	ldr	r3, [r3, #0]
 80028ae:	68da      	ldr	r2, [r3, #12]
 80028b0:	687b      	ldr	r3, [r7, #4]
 80028b2:	681b      	ldr	r3, [r3, #0]
 80028b4:	f022 0220 	bic.w	r2, r2, #32
 80028b8:	60da      	str	r2, [r3, #12]
}
 80028ba:	bf00      	nop
 80028bc:	3710      	adds	r7, #16
 80028be:	46bd      	mov	sp, r7
 80028c0:	bd80      	pop	{r7, pc}
 80028c2:	bf00      	nop
 80028c4:	20000320 	.word	0x20000320
 80028c8:	200002d0 	.word	0x200002d0
 80028cc:	20000398 	.word	0x20000398
 80028d0:	20000374 	.word	0x20000374
 80028d4:	20000324 	.word	0x20000324

080028d8 <usart_rx_en>:
{
	p_usartx->CR1 |= (1 << USART_CR1_TX_EN);
}

void usart_rx_en(usartx_regdef_t *p_usartx)
{
 80028d8:	b480      	push	{r7}
 80028da:	b083      	sub	sp, #12
 80028dc:	af00      	add	r7, sp, #0
 80028de:	6078      	str	r0, [r7, #4]
	p_usartx->CR1 |= (1 << USART_CR1_RX_EN);
 80028e0:	687b      	ldr	r3, [r7, #4]
 80028e2:	68db      	ldr	r3, [r3, #12]
 80028e4:	f043 0204 	orr.w	r2, r3, #4
 80028e8:	687b      	ldr	r3, [r7, #4]
 80028ea:	60da      	str	r2, [r3, #12]
}
 80028ec:	bf00      	nop
 80028ee:	370c      	adds	r7, #12
 80028f0:	46bd      	mov	sp, r7
 80028f2:	bc80      	pop	{r7}
 80028f4:	4770      	bx	lr
	...

080028f8 <usart_dma_mode_en_di>:
{
	p_usartx->CR1 &= ~(1 << USART_CR1_RX_EN);
}

void usart_dma_mode_en_di(usartx_regdef_t *p_usartx,uint8_t en_di)
{
 80028f8:	b480      	push	{r7}
 80028fa:	b083      	sub	sp, #12
 80028fc:	af00      	add	r7, sp, #0
 80028fe:	6078      	str	r0, [r7, #4]
 8002900:	460b      	mov	r3, r1
 8002902:	70fb      	strb	r3, [r7, #3]
	switch(en_di){
 8002904:	78fb      	ldrb	r3, [r7, #3]
 8002906:	2b03      	cmp	r3, #3
 8002908:	d826      	bhi.n	8002958 <usart_dma_mode_en_di+0x60>
 800290a:	a201      	add	r2, pc, #4	; (adr r2, 8002910 <usart_dma_mode_en_di+0x18>)
 800290c:	f852 f023 	ldr.w	pc, [r2, r3, lsl #2]
 8002910:	08002921 	.word	0x08002921
 8002914:	0800292f 	.word	0x0800292f
 8002918:	0800293d 	.word	0x0800293d
 800291c:	0800294b 	.word	0x0800294b
	case USARTx_DMA_TRANSMITTER_EN:
		p_usartx->CR3 |= USARTx_DMA_TRANSMITTER_EN_POS;
 8002920:	687b      	ldr	r3, [r7, #4]
 8002922:	695b      	ldr	r3, [r3, #20]
 8002924:	f043 0280 	orr.w	r2, r3, #128	; 0x80
 8002928:	687b      	ldr	r3, [r7, #4]
 800292a:	615a      	str	r2, [r3, #20]
		break;
 800292c:	e014      	b.n	8002958 <usart_dma_mode_en_di+0x60>
	case USARTx_DMA_TRANSMITTER_DI:
		p_usartx->CR3 &= USARTx_DMA_TRANSMITTER_DI_POS;
 800292e:	687b      	ldr	r3, [r7, #4]
 8002930:	695b      	ldr	r3, [r3, #20]
 8002932:	f023 0280 	bic.w	r2, r3, #128	; 0x80
 8002936:	687b      	ldr	r3, [r7, #4]
 8002938:	615a      	str	r2, [r3, #20]
		break;
 800293a:	e00d      	b.n	8002958 <usart_dma_mode_en_di+0x60>
	case USARTx_DMA_RECEIVER_EN:
		p_usartx->CR3 |= USARTx_DMA_RECEIVER_EN_POS;
 800293c:	687b      	ldr	r3, [r7, #4]
 800293e:	695b      	ldr	r3, [r3, #20]
 8002940:	f043 0240 	orr.w	r2, r3, #64	; 0x40
 8002944:	687b      	ldr	r3, [r7, #4]
 8002946:	615a      	str	r2, [r3, #20]
		break;
 8002948:	e006      	b.n	8002958 <usart_dma_mode_en_di+0x60>
	case USARTx_DMA_RECEIVER_DI:
		p_usartx->CR3 &= USARTx_DMA_RECEIVER_DI_POS;
 800294a:	687b      	ldr	r3, [r7, #4]
 800294c:	695b      	ldr	r3, [r3, #20]
 800294e:	f023 0240 	bic.w	r2, r3, #64	; 0x40
 8002952:	687b      	ldr	r3, [r7, #4]
 8002954:	615a      	str	r2, [r3, #20]
		break;
 8002956:	bf00      	nop
	}
}
 8002958:	bf00      	nop
 800295a:	370c      	adds	r7, #12
 800295c:	46bd      	mov	sp, r7
 800295e:	bc80      	pop	{r7}
 8002960:	4770      	bx	lr
 8002962:	bf00      	nop

08002964 <USART2_IRQHandler>:
	dma_channel_en(DMA1,7,1);


}
void USART2_IRQHandler(void)
{
 8002964:	b580      	push	{r7, lr}
 8002966:	af00      	add	r7, sp, #0
	usart_interrupt_handling(&usart_2_handle);
 8002968:	4802      	ldr	r0, [pc, #8]	; (8002974 <USART2_IRQHandler+0x10>)
 800296a:	f7ff fea3 	bl	80026b4 <usart_interrupt_handling>
}
 800296e:	bf00      	nop
 8002970:	bd80      	pop	{r7, pc}
 8002972:	bf00      	nop
 8002974:	20000378 	.word	0x20000378

08002978 <mcu_init>:
 *      Author: Prashant Ajabe
 */
#include "common.h"

void mcu_init(void)
{
 8002978:	b580      	push	{r7, lr}
 800297a:	af00      	add	r7, sp, #0
	clock_init();
 800297c:	f7fe fa94 	bl	8000ea8 <clock_init>
	io_init();
 8002980:	f7fe ff0a 	bl	8001798 <io_init>
	i2cx_init(I2C2,I2C2_CHANNEL);
 8002984:	2101      	movs	r1, #1
 8002986:	4811      	ldr	r0, [pc, #68]	; (80029cc <mcu_init+0x54>)
 8002988:	f7ff f800 	bl	800198c <i2cx_init>
	uart_x_configure_parameter(&usart_2_handle);
 800298c:	4810      	ldr	r0, [pc, #64]	; (80029d0 <mcu_init+0x58>)
 800298e:	f7ff fd57 	bl	8002440 <uart_x_configure_parameter>
	usart_init(&usart_2_handle);
 8002992:	480f      	ldr	r0, [pc, #60]	; (80029d0 <mcu_init+0x58>)
 8002994:	f7ff fd7c 	bl	8002490 <usart_init>
	timer_channel_init(TIMER1,TIMER_CHANNEL_1);
 8002998:	2100      	movs	r1, #0
 800299a:	480e      	ldr	r0, [pc, #56]	; (80029d4 <mcu_init+0x5c>)
 800299c:	f7ff fb22 	bl	8001fe4 <timer_channel_init>
	timer_channel_init(TIMER1,TIMER_CHANNEL_2);
 80029a0:	2101      	movs	r1, #1
 80029a2:	480c      	ldr	r0, [pc, #48]	; (80029d4 <mcu_init+0x5c>)
 80029a4:	f7ff fb1e 	bl	8001fe4 <timer_channel_init>
	dmax_channel_init(DMA1,CHANNEL_4);
 80029a8:	2104      	movs	r1, #4
 80029aa:	480b      	ldr	r0, [pc, #44]	; (80029d8 <mcu_init+0x60>)
 80029ac:	f7fe fc84 	bl	80012b8 <dmax_channel_init>
	dmax_channel_init(DMA1,CHANNEL_5);
 80029b0:	2105      	movs	r1, #5
 80029b2:	4809      	ldr	r0, [pc, #36]	; (80029d8 <mcu_init+0x60>)
 80029b4:	f7fe fc80 	bl	80012b8 <dmax_channel_init>
	dmax_channel_init(DMA1,CHANNEL_7);
 80029b8:	2107      	movs	r1, #7
 80029ba:	4807      	ldr	r0, [pc, #28]	; (80029d8 <mcu_init+0x60>)
 80029bc:	f7fe fc7c 	bl	80012b8 <dmax_channel_init>
	dmax_channel_init(DMA1,CHANNEL_6);
 80029c0:	2106      	movs	r1, #6
 80029c2:	4805      	ldr	r0, [pc, #20]	; (80029d8 <mcu_init+0x60>)
 80029c4:	f7fe fc78 	bl	80012b8 <dmax_channel_init>

}
 80029c8:	bf00      	nop
 80029ca:	bd80      	pop	{r7, pc}
 80029cc:	40005800 	.word	0x40005800
 80029d0:	20000378 	.word	0x20000378
 80029d4:	40012c00 	.word	0x40012c00
 80029d8:	40020000 	.word	0x40020000

080029dc <round_off>:

uint32_t round_off(float number)
{
 80029dc:	b580      	push	{r7, lr}
 80029de:	b086      	sub	sp, #24
 80029e0:	af00      	add	r7, sp, #0
 80029e2:	6078      	str	r0, [r7, #4]
	float fraction;
	uint8_t carry;
	uint32_t realPart = (int)number;
 80029e4:	6878      	ldr	r0, [r7, #4]
 80029e6:	f7fe fa19 	bl	8000e1c <__aeabi_f2iz>
 80029ea:	4603      	mov	r3, r0
 80029ec:	613b      	str	r3, [r7, #16]
	fraction = number - (int)number;
 80029ee:	6878      	ldr	r0, [r7, #4]
 80029f0:	f7fe fa14 	bl	8000e1c <__aeabi_f2iz>
 80029f4:	4603      	mov	r3, r0
 80029f6:	4618      	mov	r0, r3
 80029f8:	f7fe f946 	bl	8000c88 <__aeabi_i2f>
 80029fc:	4603      	mov	r3, r0
 80029fe:	4619      	mov	r1, r3
 8002a00:	6878      	ldr	r0, [r7, #4]
 8002a02:	f7fe f88b 	bl	8000b1c <__aeabi_fsub>
 8002a06:	4603      	mov	r3, r0
 8002a08:	60fb      	str	r3, [r7, #12]
	if (fraction < 0.50)
 8002a0a:	f04f 517c 	mov.w	r1, #1056964608	; 0x3f000000
 8002a0e:	68f8      	ldr	r0, [r7, #12]
 8002a10:	f7fe f9dc 	bl	8000dcc <__aeabi_fcmplt>
 8002a14:	4603      	mov	r3, r0
 8002a16:	2b00      	cmp	r3, #0
 8002a18:	d002      	beq.n	8002a20 <round_off+0x44>
	{
		carry = 0;
 8002a1a:	2300      	movs	r3, #0
 8002a1c:	75fb      	strb	r3, [r7, #23]
 8002a1e:	e009      	b.n	8002a34 <round_off+0x58>
	}
	else if (fraction >= 0.50)
 8002a20:	f04f 517c 	mov.w	r1, #1056964608	; 0x3f000000
 8002a24:	68f8      	ldr	r0, [r7, #12]
 8002a26:	f7fe f9e5 	bl	8000df4 <__aeabi_fcmpge>
 8002a2a:	4603      	mov	r3, r0
 8002a2c:	2b00      	cmp	r3, #0
 8002a2e:	d001      	beq.n	8002a34 <round_off+0x58>
	{
		carry = 1;
 8002a30:	2301      	movs	r3, #1
 8002a32:	75fb      	strb	r3, [r7, #23]
	}

	return (realPart + (uint32_t)carry);
 8002a34:	7dfa      	ldrb	r2, [r7, #23]
 8002a36:	693b      	ldr	r3, [r7, #16]
 8002a38:	4413      	add	r3, r2
}
 8002a3a:	4618      	mov	r0, r3
 8002a3c:	3718      	adds	r7, #24
 8002a3e:	46bd      	mov	sp, r7
 8002a40:	bd80      	pop	{r7, pc}

08002a42 <main>:
#define LED_ON() 			io_set_out(IO_TEST_LED, HIGH);
#define LED_OFF() 			io_set_out(IO_TEST_LED, LOW);


int main(void)
{
 8002a42:	b580      	push	{r7, lr}
 8002a44:	af00      	add	r7, sp, #0


	mcu_init();
 8002a46:	f7ff ff97 	bl	8002978 <mcu_init>

	while(1)
 8002a4a:	e7fe      	b.n	8002a4a <main+0x8>

08002a4c <Reset_Handler>:

  .section .text.Reset_Handler
  .weak Reset_Handler
  .type Reset_Handler, %function
Reset_Handler:
  ldr   r0, =_estack
 8002a4c:	480d      	ldr	r0, [pc, #52]	; (8002a84 <LoopForever+0x2>)
  mov   sp, r0          /* set stack pointer */
 8002a4e:	4685      	mov	sp, r0
/* Call the clock system initialization function.*/
  bl  SystemInit
 8002a50:	f3af 8000 	nop.w

/* Copy the data segment initializers from flash to SRAM */
  ldr r0, =_sdata
 8002a54:	480c      	ldr	r0, [pc, #48]	; (8002a88 <LoopForever+0x6>)
  ldr r1, =_edata
 8002a56:	490d      	ldr	r1, [pc, #52]	; (8002a8c <LoopForever+0xa>)
  ldr r2, =_sidata
 8002a58:	4a0d      	ldr	r2, [pc, #52]	; (8002a90 <LoopForever+0xe>)
  movs r3, #0
 8002a5a:	2300      	movs	r3, #0
  b LoopCopyDataInit
 8002a5c:	e002      	b.n	8002a64 <LoopCopyDataInit>

08002a5e <CopyDataInit>:

CopyDataInit:
  ldr r4, [r2, r3]
 8002a5e:	58d4      	ldr	r4, [r2, r3]
  str r4, [r0, r3]
 8002a60:	50c4      	str	r4, [r0, r3]
  adds r3, r3, #4
 8002a62:	3304      	adds	r3, #4

08002a64 <LoopCopyDataInit>:

LoopCopyDataInit:
  adds r4, r0, r3
 8002a64:	18c4      	adds	r4, r0, r3
  cmp r4, r1
 8002a66:	428c      	cmp	r4, r1
  bcc CopyDataInit
 8002a68:	d3f9      	bcc.n	8002a5e <CopyDataInit>

/* Zero fill the bss segment. */
  ldr r2, =_sbss
 8002a6a:	4a0a      	ldr	r2, [pc, #40]	; (8002a94 <LoopForever+0x12>)
  ldr r4, =_ebss
 8002a6c:	4c0a      	ldr	r4, [pc, #40]	; (8002a98 <LoopForever+0x16>)
  movs r3, #0
 8002a6e:	2300      	movs	r3, #0
  b LoopFillZerobss
 8002a70:	e001      	b.n	8002a76 <LoopFillZerobss>

08002a72 <FillZerobss>:

FillZerobss:
  str  r3, [r2]
 8002a72:	6013      	str	r3, [r2, #0]
  adds r2, r2, #4
 8002a74:	3204      	adds	r2, #4

08002a76 <LoopFillZerobss>:

LoopFillZerobss:
  cmp r2, r4
 8002a76:	42a2      	cmp	r2, r4
  bcc FillZerobss
 8002a78:	d3fb      	bcc.n	8002a72 <FillZerobss>

/* Call static constructors */
  bl __libc_init_array
 8002a7a:	f000 f811 	bl	8002aa0 <__libc_init_array>
/* Call the application's entry point.*/
  bl main
 8002a7e:	f7ff ffe0 	bl	8002a42 <main>

08002a82 <LoopForever>:

LoopForever:
    b LoopForever
 8002a82:	e7fe      	b.n	8002a82 <LoopForever>
  ldr   r0, =_estack
 8002a84:	20005000 	.word	0x20005000
  ldr r0, =_sdata
 8002a88:	20000000 	.word	0x20000000
  ldr r1, =_edata
 8002a8c:	200001bc 	.word	0x200001bc
  ldr r2, =_sidata
 8002a90:	08002b08 	.word	0x08002b08
  ldr r2, =_sbss
 8002a94:	200001bc 	.word	0x200001bc
  ldr r4, =_ebss
 8002a98:	2000039c 	.word	0x2000039c

08002a9c <ADC1_2_IRQHandler>:
 * @retval : None
*/
  .section .text.Default_Handler,"ax",%progbits
Default_Handler:
Infinite_Loop:
  b Infinite_Loop
 8002a9c:	e7fe      	b.n	8002a9c <ADC1_2_IRQHandler>
	...

08002aa0 <__libc_init_array>:
 8002aa0:	b570      	push	{r4, r5, r6, lr}
 8002aa2:	2600      	movs	r6, #0
 8002aa4:	4d0c      	ldr	r5, [pc, #48]	; (8002ad8 <__libc_init_array+0x38>)
 8002aa6:	4c0d      	ldr	r4, [pc, #52]	; (8002adc <__libc_init_array+0x3c>)
 8002aa8:	1b64      	subs	r4, r4, r5
 8002aaa:	10a4      	asrs	r4, r4, #2
 8002aac:	42a6      	cmp	r6, r4
 8002aae:	d109      	bne.n	8002ac4 <__libc_init_array+0x24>
 8002ab0:	f000 f81a 	bl	8002ae8 <_init>
 8002ab4:	2600      	movs	r6, #0
 8002ab6:	4d0a      	ldr	r5, [pc, #40]	; (8002ae0 <__libc_init_array+0x40>)
 8002ab8:	4c0a      	ldr	r4, [pc, #40]	; (8002ae4 <__libc_init_array+0x44>)
 8002aba:	1b64      	subs	r4, r4, r5
 8002abc:	10a4      	asrs	r4, r4, #2
 8002abe:	42a6      	cmp	r6, r4
 8002ac0:	d105      	bne.n	8002ace <__libc_init_array+0x2e>
 8002ac2:	bd70      	pop	{r4, r5, r6, pc}
 8002ac4:	f855 3b04 	ldr.w	r3, [r5], #4
 8002ac8:	4798      	blx	r3
 8002aca:	3601      	adds	r6, #1
 8002acc:	e7ee      	b.n	8002aac <__libc_init_array+0xc>
 8002ace:	f855 3b04 	ldr.w	r3, [r5], #4
 8002ad2:	4798      	blx	r3
 8002ad4:	3601      	adds	r6, #1
 8002ad6:	e7f2      	b.n	8002abe <__libc_init_array+0x1e>
 8002ad8:	08002b00 	.word	0x08002b00
 8002adc:	08002b00 	.word	0x08002b00
 8002ae0:	08002b00 	.word	0x08002b00
 8002ae4:	08002b04 	.word	0x08002b04

08002ae8 <_init>:
 8002ae8:	b5f8      	push	{r3, r4, r5, r6, r7, lr}
 8002aea:	bf00      	nop
 8002aec:	bcf8      	pop	{r3, r4, r5, r6, r7}
 8002aee:	bc08      	pop	{r3}
 8002af0:	469e      	mov	lr, r3
 8002af2:	4770      	bx	lr

08002af4 <_fini>:
 8002af4:	b5f8      	push	{r3, r4, r5, r6, r7, lr}
 8002af6:	bf00      	nop
 8002af8:	bcf8      	pop	{r3, r4, r5, r6, r7}
 8002afa:	bc08      	pop	{r3}
 8002afc:	469e      	mov	lr, r3
 8002afe:	4770      	bx	lr
